 PhysX3CookingDEBUG_x86

 Timestamp is 58ac984c (Tue Feb 21 20:43:08 2017)

 Preferred load address is 10000000

 Start         Length     Name                   Class
 0001:00000000 00002ca7H .text$di                CODE
 0001:00002cb0 0003973cH .text$mn                CODE
 0002:00000000 00000104H .CRT$XCA                DATA
 0002:00000104 00000173H .CRT$XCU                DATA
 0002:00000278 00000104H .CRT$XCZ                DATA
 0002:0000037c 00000104H .CRT$XIA                DATA
 0002:00000480 00000104H .CRT$XIAA               DATA
 0002:00000584 00000104H .CRT$XIC                DATA
 0002:00000688 00000104H .CRT$XIZ                DATA
 0002:00000790 00004bfdH .rdata                  DATA
 0002:00005390 000001c9H .rdata$debug            DATA
 0002:0000555c 00000156H .rdata$r                DATA
 0002:000056c0 00000104H .rdata$sxdata           DATA
 0002:000057c4 00000104H .rtc$IAA                DATA
 0002:000058c8 00000148H .rtc$IMZ                DATA
 0002:00005a10 00000104H .rtc$IZZ                DATA
 0002:00005b14 00000104H .rtc$TAA                DATA
 0002:00005c18 00000148H .rtc$TMZ                DATA
 0002:00005d60 00000104H .rtc$TZZ                DATA
 0002:00005e68 00000211H .xdata$x                DATA
 0002:00006080 000001a0H .edata                  DATA
 0003:00000000 00000238H .data                   DATA
 0003:00000238 0000039dH .data$r                 DATA
 0003:000005e0 000005e4H .bss                    DATA
 0004:00000000 0000019cH .idata$5                DATA
 0004:0000019c 00000028H .idata$2                DATA
 0004:000001c4 00000014H .idata$3                DATA
 0004:000001d8 0000019cH .idata$4                DATA
 0004:00000374 00000604H .idata$6                DATA
 0005:00000000 00000020H .didat$2                DATA
 0005:00000020 00000020H .didat$3                DATA
 0005:00000040 00000234H .didat$4                DATA
 0005:00000274 00000234H .didat$5                DATA
 0005:000004a8 000018aaH .didat$6                DATA
 0005:00001d54 000002e4H .didat$7                DATA
 0006:00000000 000001c0H .rsrc$01                DATA
 0006:000001c0 000006a9H .rsrc$02                DATA

  Address         Publics by Value              Rva+Base       Lib:Object

 0000:00000000       ___guard_fids_table        00000000     <absolute>
 0000:00000000       ___guard_fids_count        00000000     <absolute>
 0000:00000000       __except_list              00000000     <absolute>
 0000:00000000       ___guard_flags             00000000     <absolute>
 0000:00000001       ___safe_se_handler_count   00000001     <absolute>
 0000:00009876       __ldused                   00009876     <absolute>
 0000:00009876       __fltused                  00009876     <absolute>
 0000:00000000       ___ImageBase               10000000     <linker-defined>
 0001:00002cb0       _PxSetPhysXCookingDelayLoadHook 10003cb0 f   WindowsCookingDelayLoadHook.obj
 0001:00002cc0       ?delayHook@@YGP6GHXZIPAUDelayLoadInfo@@@Z 10003cc0 f   WindowsCookingDelayLoadHook.obj
 0001:00002d40       ?loadLibrary@shdfnd@physx@@YGPAUHINSTANCE__@@PBD@Z 10003d40 f i WindowsCookingDelayLoadHook.obj
 0001:00002d60       ?physXCommonDliNotePreLoadLibrary@shdfnd@physx@@YGP6GHXZPBDPBVPxDelayLoadHook@2@@Z 10003d60 f i WindowsCookingDelayLoadHook.obj
 0001:000031e0       ?strstr@@YAPADPADPBD@Z     100041e0 f i WindowsCookingDelayLoadHook.obj
 0001:00003200       ?saveHeightField@physx@@YA_NABVHeightField@Gu@1@AAVPxOutputStream@1@_N@Z 10004200 f   HeightFieldCooking.obj
 0001:00003630       ??B?$PxFlags@W4Enum@PxHeightFieldFlag@physx@@G@physx@@QBEGXZ 10004630 f i HeightFieldCooking.obj
 0001:00003650       ?getData@HeightField@Gu@physx@@QBEABUHeightFieldData@23@XZ 10004650 f i HeightFieldCooking.obj
 0001:00003670       ?buildFromTriangles@RTreeCooker@physx@@SAXAAURTree@Gu@2@PBVPxVec3@2@IPBGPBIIAAV?$Array@IVNamedAllocator@shdfnd@physx@@@shdfnd@2@PAURemapCallback@12@MW4Enum@PxMeshCookingHint@2@@Z 10004670 f   RTreeCooking.obj
 0001:00004a10       ??$PX_UNUSED@I@@YAXABI@Z   10005a10 f i RTreeCooking.obj
 0001:00004a20       ??$PX_UNUSED@M@@YAXABM@Z   10005a20 f i RTreeCooking.obj
 0001:00004a30       ??$PX_UNUSED@PAURTreeNodeNQ@physx@@@@YAXABQAURTreeNodeNQ@physx@@@Z 10005a30 f i RTreeCooking.obj
 0001:00004a40       ??$PX_UNUSED@URTreeNodeNQ@physx@@@@YAXABURTreeNodeNQ@physx@@@Z 10005a40 f i RTreeCooking.obj
 0001:00004a50       ??$PxMax@H@physx@@YAHHH@Z  10005a50 f i RTreeCooking.obj
 0001:00004a80       ??$PxMax@I@physx@@YAIII@Z  10005a80 f i RTreeCooking.obj
 0001:00004ab0       ??$PxMax@M@physx@@YAMMM@Z  10005ab0 f i RTreeCooking.obj
 0001:00004ae0       ??$PxMin@I@physx@@YAIII@Z  10005ae0 f i RTreeCooking.obj
 0001:00004b10       ??$PxMin@M@physx@@YAMMM@Z  10005b10 f i RTreeCooking.obj
 0001:00004b40       ??$median3@I$$CBU?$Less@I@shdfnd@physx@@@internal@shdfnd@physx@@YAXPAIHHABU?$Less@I@12@@Z 10005b40 f i RTreeCooking.obj
 0001:00004c70       ??$median3@I$$CBUSortBoundsPredicate@physx@@@internal@shdfnd@physx@@YAXPAIHHABUSortBoundsPredicate@2@@Z 10005c70 f i RTreeCooking.obj
 0001:00004da0       ??$partition@I$$CBU?$Less@I@shdfnd@physx@@@internal@shdfnd@physx@@YAHPAIHHABU?$Less@I@12@@Z 10005da0 f i RTreeCooking.obj
 0001:00004f70       ??$partition@I$$CBUSortBoundsPredicate@physx@@@internal@shdfnd@physx@@YAHPAIHHABUSortBoundsPredicate@2@@Z 10005f70 f i RTreeCooking.obj
 0001:00005140       ??$partition@UBoundsLTE@physx@@@quickSelect@physx@@YAIPIAIIIIABUBoundsLTE@1@@Z 10006140 f i RTreeCooking.obj
 0001:000053d0       ??$quickSelectFirstK@UBoundsLTE@physx@@@quickSelect@physx@@YAXPIAIIIIABUBoundsLTE@1@@Z 100063d0 f i RTreeCooking.obj
 0001:00005500       ??$smallSort@I$$CBU?$Less@I@shdfnd@physx@@@internal@shdfnd@physx@@YAXPAIHHABU?$Less@I@12@@Z 10006500 f i RTreeCooking.obj
 0001:000055c0       ??$smallSort@I$$CBUSortBoundsPredicate@physx@@@internal@shdfnd@physx@@YAXPAIHHABUSortBoundsPredicate@2@@Z 100065c0 f i RTreeCooking.obj
 0001:00005680       ??$sort@I@shdfnd@physx@@YAXPAII@Z 10006680 f i RTreeCooking.obj
 0001:000056d0       ??$sort@IU?$Less@I@shdfnd@physx@@VNamedAllocator@23@@shdfnd@physx@@YAXPAIIABU?$Less@I@01@ABVNamedAllocator@01@I@Z 100066d0 f i RTreeCooking.obj
 0001:000059a0       ??$sort@IUSortBoundsPredicate@physx@@@shdfnd@physx@@YAXPAIIABUSortBoundsPredicate@1@@Z 100069a0 f i RTreeCooking.obj
 0001:000059e0       ??$sort@IUSortBoundsPredicate@physx@@VNamedAllocator@shdfnd@2@@shdfnd@physx@@YAXPAIIABUSortBoundsPredicate@1@ABVNamedAllocator@01@I@Z 100069e0 f i RTreeCooking.obj
 0001:00005cb0       ??$swap@I@shdfnd@physx@@YAXAAI0@Z 10006cb0 f i RTreeCooking.obj
 0001:00005ce0       ??0?$AlignedAllocator@$0IA@VAllocator@shdfnd@physx@@@shdfnd@physx@@QAE@ABVAllocator@12@@Z 10006ce0 f i RTreeCooking.obj
 0001:00005d00       ??0?$Array@IVNamedAllocator@shdfnd@physx@@@shdfnd@physx@@QAE@IABIABVNamedAllocator@12@@Z 10006d00 f i RTreeCooking.obj
 0001:00005d60       ??0?$Array@UInterval@physx@@V?$InlineAllocator@$0CA@VNamedAllocator@shdfnd@physx@@@shdfnd@2@@shdfnd@physx@@QAE@ABV?$InlineAllocator@$0CA@VNamedAllocator@shdfnd@physx@@@12@@Z 10006d60 f i RTreeCooking.obj
 0001:00005db0       ??0?$Array@UPxBounds3V@physx@@VNamedAllocator@shdfnd@2@@shdfnd@physx@@QAE@ABVNamedAllocator@12@@Z 10006db0 f i RTreeCooking.obj
 0001:00005e00       ??0?$Array@URTreeNodeNQ@physx@@VNamedAllocator@shdfnd@2@@shdfnd@physx@@QAE@ABVNamedAllocator@12@@Z 10006e00 f i RTreeCooking.obj
 0001:00005e50       ??0?$Array@URTreeNodeQ@Gu@physx@@VNamedAllocator@shdfnd@3@@shdfnd@physx@@QAE@ABVNamedAllocator@12@@Z 10006e50 f i RTreeCooking.obj
 0001:00005ea0       ??0?$Array@VPxVec3@physx@@VNamedAllocator@shdfnd@2@@shdfnd@physx@@QAE@ABVNamedAllocator@12@@Z 10006ea0 f i RTreeCooking.obj
 0001:00005ef0       ??0?$InlineAllocator@$0CA@VNamedAllocator@shdfnd@physx@@@shdfnd@physx@@QAE@ABV012@@Z 10006ef0 f i RTreeCooking.obj
 0001:00005f20       ??0?$InlineAllocator@$0CA@VNamedAllocator@shdfnd@physx@@@shdfnd@physx@@QAE@ABVNamedAllocator@12@@Z 10006f20 f i RTreeCooking.obj
 0001:00005f50       ??0?$InlineArray@UInterval@physx@@$03VNamedAllocator@shdfnd@2@@shdfnd@physx@@QAE@ABVNamedAllocator@12@@Z 10006f50 f i RTreeCooking.obj
 0001:00005fb0       ??0?$ScopedPointer@HVTempAllocator@shdfnd@physx@@@shdfnd@physx@@QAE@XZ 10006fb0 f i RTreeCooking.obj
 0001:00005fd0       ??0?$Stack@VNamedAllocator@shdfnd@physx@@@internal@shdfnd@physx@@QAE@PAHIABVNamedAllocator@23@@Z 10006fd0 f i RTreeCooking.obj
 0001:00006020       ??0BoundsLTE@physx@@QAE@IPBVPxVec3@1@@Z 10007020 f i RTreeCooking.obj
 0001:00006050       ??0Interval@physx@@QAE@II@Z 10007050 f i RTreeCooking.obj
 0001:00006080       ??0PxBounds3@physx@@QAE@ABV01@@Z 10007080 f i RTreeCooking.obj
 0001:000060c0       ??0PxBounds3@physx@@QAE@ABVPxVec3@1@0@Z 100070c0 f i RTreeCooking.obj
 0001:00006100       ??0PxBounds3V@physx@@QAE@AAT__m128@@0@Z 10007100 f i RTreeCooking.obj
 0001:00006140       ??0PxBounds3V@physx@@QAE@UU@01@@Z 10007140 f i RTreeCooking.obj
 0001:00006160       ??0PxVec3@physx@@QAE@ABV01@@Z 10007160 f i RTreeCooking.obj
 0001:000061a0       ??0PxVec3@physx@@QAE@M@Z   100071a0 f i RTreeCooking.obj
 0001:000061f0       ??0PxVec3@physx@@QAE@MMM@Z 100071f0 f i RTreeCooking.obj
 0001:00006240       ??0PxVec4@physx@@QAE@ABVPxVec3@1@M@Z 10007240 f i RTreeCooking.obj
 0001:00006290       ??0PxVec4@physx@@QAE@M@Z   10007290 f i RTreeCooking.obj
 0001:000062f0       ??0PxVec4@physx@@QAE@MMMM@Z 100072f0 f i RTreeCooking.obj
 0001:00006350       ??0RTreeNodeNQ@physx@@QAE@ABU01@@Z 10007350 f i RTreeCooking.obj
 0001:000063a0       ??0RTreeNodeNQ@physx@@QAE@XZ 100073a0 f i RTreeCooking.obj
 0001:000063e0       ??0SortBoundsPredicate@physx@@QAE@IPBUPxBounds3V@1@@Z 100073e0 f i RTreeCooking.obj
 0001:00006410       ??0SubSortQuick@physx@@QAE@PAIPBUPxBounds3V@1@IM@Z 10007410 f i RTreeCooking.obj
 0001:00006570       ??0SubSortSAH@physx@@QAE@PAIPBUPxBounds3V@1@IPBI22222M@Z 10007570 f i RTreeCooking.obj
 0001:00006710       ??1?$Array@IVNamedAllocator@shdfnd@physx@@@shdfnd@physx@@QAE@XZ 10007710 f i RTreeCooking.obj
 0001:00006780       ??1?$Array@UInterval@physx@@V?$InlineAllocator@$0CA@VNamedAllocator@shdfnd@physx@@@shdfnd@2@@shdfnd@physx@@QAE@XZ 10007780 f i RTreeCooking.obj
 0001:000067f0       ??1?$Array@UPxBounds3V@physx@@VNamedAllocator@shdfnd@2@@shdfnd@physx@@QAE@XZ 100077f0 f i RTreeCooking.obj
 0001:00006860       ??1?$Array@URTreeNodeNQ@physx@@VNamedAllocator@shdfnd@2@@shdfnd@physx@@QAE@XZ 10007860 f i RTreeCooking.obj
 0001:000068d0       ??1?$Array@URTreeNodeQ@Gu@physx@@VNamedAllocator@shdfnd@3@@shdfnd@physx@@QAE@XZ 100078d0 f i RTreeCooking.obj
 0001:00006940       ??1?$Array@VPxVec3@physx@@VNamedAllocator@shdfnd@2@@shdfnd@physx@@QAE@XZ 10007940 f i RTreeCooking.obj
 0001:000069b0       ??1?$InlineAllocator@$0CA@VNamedAllocator@shdfnd@physx@@@shdfnd@physx@@QAE@XZ 100079b0 f i RTreeCooking.obj
 0001:000069d0       ??1?$InlineArray@UInterval@physx@@$03VNamedAllocator@shdfnd@2@@shdfnd@physx@@QAE@XZ 100079d0 f i RTreeCooking.obj
 0001:000069f0       ??1?$ScopedPointer@HVTempAllocator@shdfnd@physx@@@shdfnd@physx@@QAE@XZ 100079f0 f i RTreeCooking.obj
 0001:00006a20       ??1?$Stack@VNamedAllocator@shdfnd@physx@@@internal@shdfnd@physx@@QAE@XZ 10007a20 f i RTreeCooking.obj
 0001:00006a60       ??1SubSortQuick@physx@@QAE@XZ 10007a60 f i RTreeCooking.obj
 0001:00006a80       ??1SubSortSAH@physx@@QAE@XZ 10007a80 f i RTreeCooking.obj
 0001:00006b30       ??2@YAPAXIPAX@Z            10007b30 f i RTreeCooking.obj
 0001:00006b40       ??4PxVec3@physx@@QAEAAV01@ABV01@@Z 10007b40 f i RTreeCooking.obj
 0001:00006b80       ??4PxVec4@physx@@QAEAAV01@ABV01@@Z 10007b80 f i RTreeCooking.obj
 0001:00006bd0       ??A?$Array@IVNamedAllocator@shdfnd@physx@@@shdfnd@physx@@QAEAAII@Z 10007bd0 f i RTreeCooking.obj
 0001:00006c40       ??A?$Array@UInterval@physx@@V?$InlineAllocator@$0CA@VNamedAllocator@shdfnd@physx@@@shdfnd@2@@shdfnd@physx@@QAEAAUInterval@2@I@Z 10007c40 f i RTreeCooking.obj
 0001:00006cc0       ??A?$Array@URTreeNodeNQ@physx@@VNamedAllocator@shdfnd@2@@shdfnd@physx@@QAEAAURTreeNodeNQ@2@I@Z 10007cc0 f i RTreeCooking.obj
 0001:00006d30       ??A?$Array@URTreeNodeQ@Gu@physx@@VNamedAllocator@shdfnd@3@@shdfnd@physx@@QAEAAURTreeNodeQ@Gu@2@I@Z 10007d30 f i RTreeCooking.obj
 0001:00006da0       ??APxVec3@physx@@QBEABMI@Z 10007da0 f i RTreeCooking.obj
 0001:00006e10       ??B?$ScopedPointer@HVTempAllocator@shdfnd@physx@@@shdfnd@physx@@QBEPAHXZ 10007e10 f i RTreeCooking.obj
 0001:00006e30       ??GPxVec4@physx@@QBE?AV01@ABV01@@Z 10007e30 f i RTreeCooking.obj
 0001:00006ec0       ??HPxVec3@physx@@QBE?AV01@ABV01@@Z 10007ec0 f i RTreeCooking.obj
 0001:00006f30       ??KPxVec4@physx@@QBE?AV01@M@Z 10007f30 f i RTreeCooking.obj
 0001:00006fd0       ??R?$Less@I@shdfnd@physx@@QBE_NABI0@Z 10007fd0 f i RTreeCooking.obj
 0001:00007010       ??RBoundsLTE@physx@@QBE_NABI0@Z 10008010 f i RTreeCooking.obj
 0001:000070a0       ??RSortBoundsPredicate@physx@@QBE_NABI0@Z 100080a0 f i RTreeCooking.obj
 0001:000071d0       ?FLoad@aos@shdfnd@physx@@YA?AT__m128@@M@Z 100081d0 f i RTreeCooking.obj
 0001:00007210       ?FMax@aos@shdfnd@physx@@YA?AT__m128@@XZ 10008210 f i RTreeCooking.obj
 0001:00007260       ?FNegMax@aos@shdfnd@physx@@YA?AT__m128@@XZ 10008260 f i RTreeCooking.obj
 0001:000072b0       ?FStore@aos@shdfnd@physx@@YAXT__m128@@PIAM@Z 100082b0 f i RTreeCooking.obj
 0001:000072f0       ?PxAbs@physx@@YAHH@Z       100082f0 f i RTreeCooking.obj
 0001:00007300       ?PxIsFinite@physx@@YA_NM@Z 10008300 f i RTreeCooking.obj
 0001:00007320       ?PxMemCopy@physx@@YAPAXPIAXPIBXI@Z 10008320 f i RTreeCooking.obj
 0001:00007340       ?V3Add@aos@shdfnd@physx@@YA?AT__m128@@T4@0@Z 10008340 f i RTreeCooking.obj
 0001:00007390       ?V3Dot@aos@shdfnd@physx@@YA?AT__m128@@T4@0@Z 10008390 f i RTreeCooking.obj
 0001:00007470       ?V3Load@aos@shdfnd@physx@@YA?AT__m128@@M@Z 10008470 f i RTreeCooking.obj
 0001:000074d0       ?V3LoadU@aos@shdfnd@physx@@YA?AT__m128@@ABVPxVec3@3@@Z 100084d0 f i RTreeCooking.obj
 0001:00007540       ?V3Max@aos@shdfnd@physx@@YA?AT__m128@@T4@0@Z 10008540 f i RTreeCooking.obj
 0001:00007590       ?V3Min@aos@shdfnd@physx@@YA?AT__m128@@T4@0@Z 10008590 f i RTreeCooking.obj
 0001:000075e0       ?V3PermZXY@aos@shdfnd@physx@@YA?AT__m128@@T4@@Z 100085e0 f i RTreeCooking.obj
 0001:00007630       ?V3ReadXYZ@aos@shdfnd@physx@@YAABVPxVec3@3@ABT__m128@@@Z 10008630 f i RTreeCooking.obj
 0001:00007640       ?V3Splat@aos@shdfnd@physx@@YA?AT__m128@@T4@@Z 10008640 f i RTreeCooking.obj
 0001:000076c0       ?V3StoreA@aos@shdfnd@physx@@YAXT__m128@@AAVPxVec3@3@@Z 100086c0 f i RTreeCooking.obj
 0001:00007760       ?V3Sub@aos@shdfnd@physx@@YA?AT__m128@@T4@0@Z 10008760 f i RTreeCooking.obj
 0001:000077b0       ?V3Zero@aos@shdfnd@physx@@YA?AT__m128@@XZ 100087b0 f i RTreeCooking.obj
 0001:000077f0       ?V4ClearW@aos@shdfnd@physx@@YA?AT__m128@@T4@@Z 100087f0 f i RTreeCooking.obj
 0001:00007840       ?V4Load@aos@shdfnd@physx@@YA?AT__m128@@M@Z 10008840 f i RTreeCooking.obj
 0001:00007880       ?Vec3V_From_FloatV@aos@shdfnd@physx@@YA?AT__m128@@T4@@Z 10008880 f i RTreeCooking.obj
 0001:000078e0       ?Vec3V_From_Vec4V@aos@shdfnd@physx@@YA?AT__m128@@T4@@Z 100088e0 f i RTreeCooking.obj
 0001:00007930       ?Vec4V_From_FloatV@aos@shdfnd@physx@@YA?AT__m128@@T4@@Z 10008930 f i RTreeCooking.obj
 0001:00007970       ?allocate@?$AlignedAllocator@$0IA@VAllocator@shdfnd@physx@@@shdfnd@physx@@QAEPAXIPBDH@Z 10008970 f i RTreeCooking.obj
 0001:000079f0       ?allocate@?$Array@IVNamedAllocator@shdfnd@physx@@@shdfnd@physx@@IAEPAII@Z 100089f0 f i RTreeCooking.obj
 0001:00007a70       ?allocate@?$Array@UInterval@physx@@V?$InlineAllocator@$0CA@VNamedAllocator@shdfnd@physx@@@shdfnd@2@@shdfnd@physx@@IAEPAUInterval@3@I@Z 10008a70 f i RTreeCooking.obj
 0001:00007af0       ?allocate@?$Array@UPxBounds3V@physx@@VNamedAllocator@shdfnd@2@@shdfnd@physx@@IAEPAUPxBounds3V@3@I@Z 10008af0 f i RTreeCooking.obj
 0001:00007b70       ?allocate@?$Array@URTreeNodeNQ@physx@@VNamedAllocator@shdfnd@2@@shdfnd@physx@@IAEPAURTreeNodeNQ@3@I@Z 10008b70 f i RTreeCooking.obj
 0001:00007bf0       ?allocate@?$Array@URTreeNodeQ@Gu@physx@@VNamedAllocator@shdfnd@3@@shdfnd@physx@@IAEPAURTreeNodeQ@Gu@3@I@Z 10008bf0 f i RTreeCooking.obj
 0001:00007c70       ?allocate@?$Array@VPxVec3@physx@@VNamedAllocator@shdfnd@2@@shdfnd@physx@@IAEPAVPxVec3@3@I@Z 10008c70 f i RTreeCooking.obj
 0001:00007cf0       ?allocate@?$InlineAllocator@$0CA@VNamedAllocator@shdfnd@physx@@@shdfnd@physx@@QAEPAXIPBDH@Z 10008cf0 f i RTreeCooking.obj
 0001:00007d40       ?begin@?$Array@IVNamedAllocator@shdfnd@physx@@@shdfnd@physx@@QAEPAIXZ 10008d40 f i RTreeCooking.obj
 0001:00007d60       ?begin@?$Array@UPxBounds3V@physx@@VNamedAllocator@shdfnd@2@@shdfnd@physx@@QAEPAUPxBounds3V@3@XZ 10008d60 f i RTreeCooking.obj
 0001:00007d80       ?begin@?$Array@VPxVec3@physx@@VNamedAllocator@shdfnd@2@@shdfnd@physx@@QAEPAVPxVec3@3@XZ 10008d80 f i RTreeCooking.obj
 0001:00007da0       ?capacity@?$Array@IVNamedAllocator@shdfnd@physx@@@shdfnd@physx@@QBEIXZ 10008da0 f i RTreeCooking.obj
 0001:00007dc0       ?capacity@?$Array@UInterval@physx@@V?$InlineAllocator@$0CA@VNamedAllocator@shdfnd@physx@@@shdfnd@2@@shdfnd@physx@@QBEIXZ 10008dc0 f i RTreeCooking.obj
 0001:00007de0       ?capacity@?$Array@UPxBounds3V@physx@@VNamedAllocator@shdfnd@2@@shdfnd@physx@@QBEIXZ 10008de0 f i RTreeCooking.obj
 0001:00007e00       ?capacity@?$Array@URTreeNodeNQ@physx@@VNamedAllocator@shdfnd@2@@shdfnd@physx@@QBEIXZ 10008e00 f i RTreeCooking.obj
 0001:00007e20       ?capacity@?$Array@URTreeNodeQ@Gu@physx@@VNamedAllocator@shdfnd@3@@shdfnd@physx@@QBEIXZ 10008e20 f i RTreeCooking.obj
 0001:00007e40       ?capacity@?$Array@VPxVec3@physx@@VNamedAllocator@shdfnd@2@@shdfnd@physx@@QBEIXZ 10008e40 f i RTreeCooking.obj
 0001:00007e60       ?capacityIncrement@?$Array@IVNamedAllocator@shdfnd@physx@@@shdfnd@physx@@IBEIXZ 10008e60 f i RTreeCooking.obj
 0001:00007ea0       ?capacityIncrement@?$Array@UInterval@physx@@V?$InlineAllocator@$0CA@VNamedAllocator@shdfnd@physx@@@shdfnd@2@@shdfnd@physx@@IBEIXZ 10008ea0 f i RTreeCooking.obj
 0001:00007ee0       ?capacityIncrement@?$Array@UPxBounds3V@physx@@VNamedAllocator@shdfnd@2@@shdfnd@physx@@IBEIXZ 10008ee0 f i RTreeCooking.obj
 0001:00007f20       ?capacityIncrement@?$Array@URTreeNodeNQ@physx@@VNamedAllocator@shdfnd@2@@shdfnd@physx@@IBEIXZ 10008f20 f i RTreeCooking.obj
 0001:00007f60       ?capacityIncrement@?$Array@URTreeNodeQ@Gu@physx@@VNamedAllocator@shdfnd@3@@shdfnd@physx@@IBEIXZ 10008f60 f i RTreeCooking.obj
 0001:00007fa0       ?capacityIncrement@?$Array@VPxVec3@physx@@VNamedAllocator@shdfnd@2@@shdfnd@physx@@IBEIXZ 10008fa0 f i RTreeCooking.obj
 0001:00007fe0       ?computeSA@SubSortSAH@physx@@QAEMPBIABUInterval@2@@Z 10008fe0 f i RTreeCooking.obj
 0001:00008160       ?copy@?$Array@IVNamedAllocator@shdfnd@physx@@@shdfnd@physx@@KAXPAI0PBI@Z 10009160 f i RTreeCooking.obj
 0001:000081d0       ?copy@?$Array@UInterval@physx@@V?$InlineAllocator@$0CA@VNamedAllocator@shdfnd@physx@@@shdfnd@2@@shdfnd@physx@@KAXPAUInterval@3@0PBU43@@Z 100091d0 f i RTreeCooking.obj
 0001:00008250       ?copy@?$Array@UPxBounds3V@physx@@VNamedAllocator@shdfnd@2@@shdfnd@physx@@KAXPAUPxBounds3V@3@0PBU43@@Z 10009250 f i RTreeCooking.obj
 0001:000082d0       ?copy@?$Array@URTreeNodeNQ@physx@@VNamedAllocator@shdfnd@2@@shdfnd@physx@@KAXPAURTreeNodeNQ@3@0PBU43@@Z 100092d0 f i RTreeCooking.obj
 0001:00008340       ?copy@?$Array@URTreeNodeQ@Gu@physx@@VNamedAllocator@shdfnd@3@@shdfnd@physx@@KAXPAURTreeNodeQ@Gu@3@0PBU453@@Z 10009340 f i RTreeCooking.obj
 0001:000083c0       ?copy@?$Array@VPxVec3@physx@@VNamedAllocator@shdfnd@2@@shdfnd@physx@@KAXPAVPxVec3@3@0PBV43@@Z 100093c0 f i RTreeCooking.obj
 0001:00008430       ?create@?$Array@IVNamedAllocator@shdfnd@physx@@@shdfnd@physx@@KAXPAI0ABI@Z 10009430 f i RTreeCooking.obj
 0001:000084a0       ?deallocate@?$Array@IVNamedAllocator@shdfnd@physx@@@shdfnd@physx@@IAEXPAX@Z 100094a0 f i RTreeCooking.obj
 0001:000084c0       ?deallocate@?$Array@UInterval@physx@@V?$InlineAllocator@$0CA@VNamedAllocator@shdfnd@physx@@@shdfnd@2@@shdfnd@physx@@IAEXPAX@Z 100094c0 f i RTreeCooking.obj
 0001:000084e0       ?deallocate@?$Array@UPxBounds3V@physx@@VNamedAllocator@shdfnd@2@@shdfnd@physx@@IAEXPAX@Z 100094e0 f i RTreeCooking.obj
 0001:00008500       ?deallocate@?$Array@URTreeNodeNQ@physx@@VNamedAllocator@shdfnd@2@@shdfnd@physx@@IAEXPAX@Z 10009500 f i RTreeCooking.obj
 0001:00008520       ?deallocate@?$Array@URTreeNodeQ@Gu@physx@@VNamedAllocator@shdfnd@3@@shdfnd@physx@@IAEXPAX@Z 10009520 f i RTreeCooking.obj
 0001:00008540       ?deallocate@?$Array@VPxVec3@physx@@VNamedAllocator@shdfnd@2@@shdfnd@physx@@IAEXPAX@Z 10009540 f i RTreeCooking.obj
 0001:00008560       ?deallocate@?$InlineAllocator@$0CA@VNamedAllocator@shdfnd@physx@@@shdfnd@physx@@QAEXPAX@Z 10009560 f i RTreeCooking.obj
 0001:000085a0       ?destroy@?$Array@IVNamedAllocator@shdfnd@physx@@@shdfnd@physx@@KAXPAI0@Z 100095a0 f i RTreeCooking.obj
 0001:000085c0       ?destroy@?$Array@UInterval@physx@@V?$InlineAllocator@$0CA@VNamedAllocator@shdfnd@physx@@@shdfnd@2@@shdfnd@physx@@KAXPAUInterval@3@0@Z 100095c0 f i RTreeCooking.obj
 0001:000085e0       ?destroy@?$Array@UPxBounds3V@physx@@VNamedAllocator@shdfnd@2@@shdfnd@physx@@KAXPAUPxBounds3V@3@0@Z 100095e0 f i RTreeCooking.obj
 0001:00008600       ?destroy@?$Array@URTreeNodeNQ@physx@@VNamedAllocator@shdfnd@2@@shdfnd@physx@@KAXPAURTreeNodeNQ@3@0@Z 10009600 f i RTreeCooking.obj
 0001:00008620       ?destroy@?$Array@URTreeNodeQ@Gu@physx@@VNamedAllocator@shdfnd@3@@shdfnd@physx@@KAXPAURTreeNodeQ@Gu@3@0@Z 10009620 f i RTreeCooking.obj
 0001:00008640       ?destroy@?$Array@VPxVec3@physx@@VNamedAllocator@shdfnd@2@@shdfnd@physx@@KAXPAVPxVec3@3@0@Z 10009640 f i RTreeCooking.obj
 0001:00008660       ?empty@?$Stack@VNamedAllocator@shdfnd@physx@@@internal@shdfnd@physx@@QAE_NXZ 10009660 f i RTreeCooking.obj
 0001:000086a0       ?empty@PxBounds3@physx@@SA?AV12@XZ 100096a0 f i RTreeCooking.obj
 0001:00008700       ?getExtents@PxBounds3V@physx@@QBE?AT__m128@@XZ 10009700 f i RTreeCooking.obj
 0001:00008760       ?getMaxVec3@PxBounds3V@physx@@QBEABVPxVec3@2@XZ 10009760 f i RTreeCooking.obj
 0001:00008780       ?getMinVec3@PxBounds3V@physx@@QBEABVPxVec3@2@XZ 10009780 f i RTreeCooking.obj
 0001:000087a0       ?grow@?$Array@IVNamedAllocator@shdfnd@physx@@@shdfnd@physx@@IAEXI@Z 100097a0 f i RTreeCooking.obj
 0001:00008820       ?grow@?$Array@UPxBounds3V@physx@@VNamedAllocator@shdfnd@2@@shdfnd@physx@@IAEXI@Z 10009820 f i RTreeCooking.obj
 0001:000088a0       ?grow@?$Array@URTreeNodeNQ@physx@@VNamedAllocator@shdfnd@2@@shdfnd@physx@@IAEXI@Z 100098a0 f i RTreeCooking.obj
 0001:00008920       ?grow@?$Array@URTreeNodeQ@Gu@physx@@VNamedAllocator@shdfnd@3@@shdfnd@physx@@IAEXI@Z 10009920 f i RTreeCooking.obj
 0001:000089a0       ?grow@?$Array@VPxVec3@physx@@VNamedAllocator@shdfnd@2@@shdfnd@physx@@IAEXI@Z 100099a0 f i RTreeCooking.obj
 0001:00008a20       ?grow@?$Stack@VNamedAllocator@shdfnd@physx@@@internal@shdfnd@physx@@QAEXXZ 10009a20 f i RTreeCooking.obj
 0001:00008ad0       ?growAndPushBack@?$Array@IVNamedAllocator@shdfnd@physx@@@shdfnd@physx@@IAEAAIABI@Z 10009ad0 f i RTreeCooking.obj
 0001:00008c60       ?growAndPushBack@?$Array@UInterval@physx@@V?$InlineAllocator@$0CA@VNamedAllocator@shdfnd@physx@@@shdfnd@2@@shdfnd@physx@@IAEAAUInterval@3@ABU43@@Z 10009c60 f i RTreeCooking.obj
 0001:00008e00       ?growAndPushBack@?$Array@UPxBounds3V@physx@@VNamedAllocator@shdfnd@2@@shdfnd@physx@@IAEAAUPxBounds3V@3@ABU43@@Z 10009e00 f i RTreeCooking.obj
 0001:00008f90       ?growAndPushBack@?$Array@URTreeNodeNQ@physx@@VNamedAllocator@shdfnd@2@@shdfnd@physx@@IAEAAURTreeNodeNQ@3@ABU43@@Z 10009f90 f i RTreeCooking.obj
 0001:00009120       ?growAndPushBack@?$Array@URTreeNodeQ@Gu@physx@@VNamedAllocator@shdfnd@3@@shdfnd@physx@@IAEAAURTreeNodeQ@Gu@3@ABU453@@Z 1000a120 f i RTreeCooking.obj
 0001:000092b0       ?growAndPushBack@?$Array@VPxVec3@physx@@VNamedAllocator@shdfnd@2@@shdfnd@physx@@IAEAAVPxVec3@3@ABV43@@Z 1000a2b0 f i RTreeCooking.obj
 0001:00009430       ?include@PxBounds3V@physx@@QAEXABU12@@Z 1000a430 f i RTreeCooking.obj
 0001:000094b0       ?isFinite@PxBounds3@physx@@QBE_NXZ 1000a4b0 f i RTreeCooking.obj
 0001:00009510       ?isFinite@PxVec3@physx@@QBE_NXZ 1000a510 f i RTreeCooking.obj
 0001:000095b0       ?isFinite@intrinsics@physx@@YA_NM@Z 1000a5b0 f i RTreeCooking.obj
 0001:00009600       ?isInUserMemory@?$Array@IVNamedAllocator@shdfnd@physx@@@shdfnd@physx@@QBEIXZ 1000a600 f i RTreeCooking.obj
 0001:00009620       ?isInUserMemory@?$Array@UInterval@physx@@V?$InlineAllocator@$0CA@VNamedAllocator@shdfnd@physx@@@shdfnd@2@@shdfnd@physx@@QBEIXZ 1000a620 f i RTreeCooking.obj
 0001:00009640       ?isInUserMemory@?$Array@UPxBounds3V@physx@@VNamedAllocator@shdfnd@2@@shdfnd@physx@@QBEIXZ 1000a640 f i RTreeCooking.obj
 0001:00009660       ?isInUserMemory@?$Array@URTreeNodeNQ@physx@@VNamedAllocator@shdfnd@2@@shdfnd@physx@@QBEIXZ 1000a660 f i RTreeCooking.obj
 0001:00009680       ?isInUserMemory@?$Array@URTreeNodeQ@Gu@physx@@VNamedAllocator@shdfnd@3@@shdfnd@physx@@QBEIXZ 1000a680 f i RTreeCooking.obj
 0001:000096a0       ?isInUserMemory@?$Array@VPxVec3@physx@@VNamedAllocator@shdfnd@2@@shdfnd@physx@@QBEIXZ 1000a6a0 f i RTreeCooking.obj
 0001:000096c0       ?isInside@PxBounds3@physx@@QBE_NABV12@@Z 1000a6c0 f i RTreeCooking.obj
 0001:000097e0       ?isLeaf@RTreeNodeQ@Gu@physx@@QBEIXZ 1000a7e0 f i RTreeCooking.obj
 0001:00009800       ?isValid@PxBounds3@physx@@QBE_NXZ 1000a800 f i RTreeCooking.obj
 0001:00009920       ?memCopy@intrinsics@physx@@YAPAXPIAXPIBXI@Z 1000a920 f i RTreeCooking.obj
 0001:00009940       ?pop@?$Stack@VNamedAllocator@shdfnd@physx@@@internal@shdfnd@physx@@QAEXAAH0@Z 1000a940 f i RTreeCooking.obj
 0001:00009a10       ?popBack@?$Array@IVNamedAllocator@shdfnd@physx@@@shdfnd@physx@@QAEIXZ 1000aa10 f i RTreeCooking.obj
 0001:00009ab0       ?push@?$Stack@VNamedAllocator@shdfnd@physx@@@internal@shdfnd@physx@@QAEXHH@Z 1000aab0 f i RTreeCooking.obj
 0001:00009b40       ?pushBack@?$Array@IVNamedAllocator@shdfnd@physx@@@shdfnd@physx@@QAEAAIABI@Z 1000ab40 f i RTreeCooking.obj
 0001:00009bf0       ?pushBack@?$Array@UInterval@physx@@V?$InlineAllocator@$0CA@VNamedAllocator@shdfnd@physx@@@shdfnd@2@@shdfnd@physx@@QAEAAUInterval@3@ABU43@@Z 1000abf0 f i RTreeCooking.obj
 0001:00009cb0       ?pushBack@?$Array@UPxBounds3V@physx@@VNamedAllocator@shdfnd@2@@shdfnd@physx@@QAEAAUPxBounds3V@3@ABU43@@Z 1000acb0 f i RTreeCooking.obj
 0001:00009d70       ?pushBack@?$Array@URTreeNodeNQ@physx@@VNamedAllocator@shdfnd@2@@shdfnd@physx@@QAEAAURTreeNodeNQ@3@ABU43@@Z 1000ad70 f i RTreeCooking.obj
 0001:00009e20       ?pushBack@?$Array@URTreeNodeQ@Gu@physx@@VNamedAllocator@shdfnd@3@@shdfnd@physx@@QAEAAURTreeNodeQ@Gu@3@ABU453@@Z 1000ae20 f i RTreeCooking.obj
 0001:00009ee0       ?pushBack@?$Array@VPxVec3@physx@@VNamedAllocator@shdfnd@2@@shdfnd@physx@@QAEAAVPxVec3@3@ABV43@@Z 1000aee0 f i RTreeCooking.obj
 0001:00009f90       ?recreate@?$Array@IVNamedAllocator@shdfnd@physx@@@shdfnd@physx@@IAEXI@Z 1000af90 f i RTreeCooking.obj
 0001:0000a0a0       ?recreate@?$Array@UPxBounds3V@physx@@VNamedAllocator@shdfnd@2@@shdfnd@physx@@IAEXI@Z 1000b0a0 f i RTreeCooking.obj
 0001:0000a1b0       ?recreate@?$Array@URTreeNodeNQ@physx@@VNamedAllocator@shdfnd@2@@shdfnd@physx@@IAEXI@Z 1000b1b0 f i RTreeCooking.obj
 0001:0000a2c0       ?recreate@?$Array@URTreeNodeQ@Gu@physx@@VNamedAllocator@shdfnd@3@@shdfnd@physx@@IAEXI@Z 1000b2c0 f i RTreeCooking.obj
 0001:0000a3c0       ?recreate@?$Array@VPxVec3@physx@@VNamedAllocator@shdfnd@2@@shdfnd@physx@@IAEXI@Z 1000b3c0 f i RTreeCooking.obj
 0001:0000a4c0       ?replaceWithLast@?$Array@UInterval@physx@@V?$InlineAllocator@$0CA@VNamedAllocator@shdfnd@physx@@@shdfnd@2@@shdfnd@physx@@QAEXI@Z 1000b4c0 f i RTreeCooking.obj
 0001:0000a570       ?reserve@?$Array@IVNamedAllocator@shdfnd@physx@@@shdfnd@physx@@QAEXI@Z 1000b570 f i RTreeCooking.obj
 0001:0000a5a0       ?reserve@?$Array@UPxBounds3V@physx@@VNamedAllocator@shdfnd@2@@shdfnd@physx@@QAEXI@Z 1000b5a0 f i RTreeCooking.obj
 0001:0000a5d0       ?reserve@?$Array@URTreeNodeNQ@physx@@VNamedAllocator@shdfnd@2@@shdfnd@physx@@QAEXI@Z 1000b5d0 f i RTreeCooking.obj
 0001:0000a600       ?reserve@?$Array@URTreeNodeQ@Gu@physx@@VNamedAllocator@shdfnd@3@@shdfnd@physx@@QAEXI@Z 1000b600 f i RTreeCooking.obj
 0001:0000a630       ?reserve@?$Array@VPxVec3@physx@@VNamedAllocator@shdfnd@2@@shdfnd@physx@@QAEXI@Z 1000b630 f i RTreeCooking.obj
 0001:0000a660       ?resize@?$Array@IVNamedAllocator@shdfnd@physx@@@shdfnd@physx@@QAEXIABI@Z 1000b660 f i RTreeCooking.obj
 0001:0000a6f0       ?resizeUninitialized@?$Array@URTreeNodeNQ@physx@@VNamedAllocator@shdfnd@2@@shdfnd@physx@@QAEXI@Z 1000b6f0 f i RTreeCooking.obj
 0001:0000a720       ?selectMax@intrinsics@physx@@YAMMM@Z 1000b720 f i RTreeCooking.obj
 0001:0000a760       ?selectMin@intrinsics@physx@@YAMMM@Z 1000b760 f i RTreeCooking.obj
 0001:0000a7a0       ?setEmpty@PxBounds3@physx@@QAEXXZ 1000b7a0 f i RTreeCooking.obj
 0001:0000a810       ?setLeaf@RTreeNodeQ@Gu@physx@@QAEX_N@Z 1000b810 f i RTreeCooking.obj
 0001:0000a860       ?size@?$Array@IVNamedAllocator@shdfnd@physx@@@shdfnd@physx@@QBEIXZ 1000b860 f i RTreeCooking.obj
 0001:0000a880       ?size@?$Array@UInterval@physx@@V?$InlineAllocator@$0CA@VNamedAllocator@shdfnd@physx@@@shdfnd@2@@shdfnd@physx@@QBEIXZ 1000b880 f i RTreeCooking.obj
 0001:0000a8a0       ?size@?$Array@URTreeNodeNQ@physx@@VNamedAllocator@shdfnd@2@@shdfnd@physx@@QBEIXZ 1000b8a0 f i RTreeCooking.obj
 0001:0000a8c0       ?size@?$Array@URTreeNodeQ@Gu@physx@@VNamedAllocator@shdfnd@3@@shdfnd@physx@@QBEIXZ 1000b8c0 f i RTreeCooking.obj
 0001:0000a8e0       ?size@?$Array@VPxVec3@physx@@VNamedAllocator@shdfnd@2@@shdfnd@physx@@QBEIXZ 1000b8e0 f i RTreeCooking.obj
 0001:0000a900       ?sort4@SubSortQuick@physx@@QAEXPIAIIAAV?$Array@URTreeNodeNQ@physx@@VNamedAllocator@shdfnd@2@@shdfnd@2@AAIAAUPxBounds3V@2@I@Z 1000b900 f i RTreeCooking.obj
 0001:0000b160       ?sort4@SubSortSAH@physx@@QAEXPAIIAAV?$Array@URTreeNodeNQ@physx@@VNamedAllocator@shdfnd@2@@shdfnd@2@AAIIPAURTreeNodeNQ@2@@Z 1000c160 f i RTreeCooking.obj
 0001:0000bf10       ?split@SubSortSAH@physx@@QAEIPAII@Z 1000cf10 f i RTreeCooking.obj
 0001:0000cb90       ?loadFromDesc@TriangleMeshBuilder@physx@@QAE_NABVPxTriangleMeshDesc@2@ABUPxCookingParams@2@_N@Z 1000db90 f   TriangleMeshBuilder.obj
 0001:0000cda0       ?save@TriangleMeshBuilder@physx@@QBE_NAAVPxOutputStream@2@_NABUPxCookingParams@2@@Z 1000dda0 f   TriangleMeshBuilder.obj
 0001:0000d330       ?computeLocalBounds@TriangleMeshBuilder@physx@@IAEXXZ 1000e330 f   TriangleMeshBuilder.obj
 0001:0000d440       ?importMesh@TriangleMeshBuilder@physx@@IAE_NABVPxTriangleMeshDesc@2@ABUPxCookingParams@2@_N@Z 1000e440 f   TriangleMeshBuilder.obj
 0001:0000db60       ??$?_UI@@YAPAXIV?$ReflectionAllocator@I@shdfnd@physx@@PBDH@Z 1000eb60 f i TriangleMeshBuilder.obj
 0001:0000db80       ??0?$PxFlags@W4Enum@PxMeshFlag@physx@@G@physx@@QAE@ABV01@@Z 1000eb80 f i TriangleMeshBuilder.obj
 0001:0000dbb0       ??0?$PxFlags@W4Enum@PxMeshFlag@physx@@G@physx@@QAE@W4Enum@PxMeshFlag@1@@Z 1000ebb0 f i TriangleMeshBuilder.obj
 0001:0000dbd0       ??0?$PxFlags@W4Enum@PxMeshFlag@physx@@G@physx@@QAE@XZ 1000ebd0 f i TriangleMeshBuilder.obj
 0001:0000dbf0       ??0?$PxFlags@W4Enum@PxMeshPreprocessingFlag@physx@@I@physx@@QAE@ABV01@@Z 1000ebf0 f i TriangleMeshBuilder.obj
 0001:0000dc10       ??0?$ReflectionAllocator@I@shdfnd@physx@@QAE@PBD@Z 1000ec10 f i TriangleMeshBuilder.obj
 0001:0000dc30       ??0PxSimpleTriangleMesh@physx@@QAE@ABV01@@Z 1000ec30 f i TriangleMeshBuilder.obj
 0001:0000dca0       ??0PxTriangleMeshDesc@physx@@QAE@ABV01@@Z 1000eca0 f i TriangleMeshBuilder.obj
 0001:0000dcf0       ??APxVec3@physx@@QAEAAMI@Z 1000ecf0 f i TriangleMeshBuilder.obj
 0001:0000dd60       ??B?$PxFlags@W4Enum@PxMeshFlag@physx@@G@physx@@QBE_NXZ 1000ed60 f i TriangleMeshBuilder.obj
 0001:0000dd90       ??B?$PxFlags@W4Enum@PxMeshPreprocessingFlag@physx@@I@physx@@QBE_NXZ 1000ed90 f i TriangleMeshBuilder.obj
 0001:0000ddc0       ??I?$PxFlags@W4Enum@PxMeshFlag@physx@@G@physx@@QBE?AV01@W4Enum@PxMeshFlag@1@@Z 1000edc0 f i TriangleMeshBuilder.obj
 0001:0000de10       ??I?$PxFlags@W4Enum@PxMeshPreprocessingFlag@physx@@I@physx@@QBE?AV01@W4Enum@PxMeshPreprocessingFlag@1@@Z 1000ee10 f i TriangleMeshBuilder.obj
 0001:0000de50       ??S?$PxFlags@W4Enum@PxMeshFlag@physx@@G@physx@@QBE?AV01@XZ 1000ee50 f i TriangleMeshBuilder.obj
 0001:0000de90       ??Sphysx@@YA?AV?$PxFlags@W4Enum@PxMeshFlag@physx@@G@0@W4Enum@PxMeshFlag@0@@Z 1000ee90 f i TriangleMeshBuilder.obj
 0001:0000dec0       ??_4?$PxFlags@W4Enum@PxMeshFlag@physx@@G@physx@@QAEAAV01@ABV01@@Z 1000eec0 f i TriangleMeshBuilder.obj
 0001:0000def0       ??_H@YGXPAXIHP6EPAX0@Z@Z   1000eef0 f i TriangleMeshBuilder.obj
 0001:0000df20       ?PxAbs@physx@@YAMM@Z       1000ef20 f i TriangleMeshBuilder.obj
 0001:0000df40       ?abs@intrinsics@physx@@YAMM@Z 1000ef40 f i TriangleMeshBuilder.obj
 0001:0000df60       ?allocate@?$ReflectionAllocator@I@shdfnd@physx@@QAEPAXIPBDH@Z 1000ef60 f i TriangleMeshBuilder.obj
 0001:0000dfc0       ?gatherStrided@shdfnd@physx@@YAXPBXPAXIII@Z 1000efc0 f i TriangleMeshBuilder.obj
 0001:0000e030       ?getFoundation@shdfnd@physx@@YAAAVFoundation@12@XZ 1000f030 f i TriangleMeshBuilder.obj
 0001:0000e040       ?getName@?$ReflectionAllocator@I@shdfnd@physx@@CAPBDXZ 1000f040 f i TriangleMeshBuilder.obj
 0001:0000e090       ?isValid@PxSimpleTriangleMesh@physx@@QBE_NXZ 1000f090 f i TriangleMeshBuilder.obj
 0001:0000e160       ?isValid@PxTriangleMeshDesc@physx@@QBE_NXZ 1000f160 f i TriangleMeshBuilder.obj
 0001:0000e1d0       ?to16@shdfnd@physx@@YAGI@Z 1000f1d0 f i TriangleMeshBuilder.obj
 0001:0000e230       ?writeIntBuffer@physx@@YAXPBII_NAAVPxOutputStream@1@@Z 1000f230 f i TriangleMeshBuilder.obj
 0001:0000e260       _fabsf                     1000f260 f i TriangleMeshBuilder.obj
 0001:0000e290       _powf                      1000f290 f i TriangleMeshBuilder.obj
 0001:0000e2d0       ??0BigConvexDataBuilder@physx@@QAE@PBUConvexHullData@Gu@1@PAVBigConvexData@1@PBVPxVec3@1@@Z 1000f2d0 f   BigConvexDataBuilder.obj
 0001:0000e300       ??1BigConvexDataBuilder@physx@@QAE@XZ 1000f300 f   BigConvexDataBuilder.obj
 0001:0000e310       ?Precompute@BigConvexDataBuilder@physx@@QAE_NI@Z 1000f310 f   BigConvexDataBuilder.obj
 0001:0000e6d0       ?Initialize@BigConvexDataBuilder@physx@@QAE_NXZ 1000f6d0 f   BigConvexDataBuilder.obj
 0001:0000e720       ?PrecomputeSample@BigConvexDataBuilder@physx@@QAE_NIABVPxVec3@2@@Z 1000f720 f   BigConvexDataBuilder.obj
 0001:0000e820       ?Save@BigConvexDataBuilder@physx@@QBE_NAAVPxOutputStream@2@_NIPBUHullTriangleData@2@@Z 1000f820 f   BigConvexDataBuilder.obj
 0001:0000e910       ?ComputeValencies@BigConvexDataBuilder@physx@@QBE_NIPBUHullTriangleData@2@@Z 1000f910 f   BigConvexDataBuilder.obj
 0001:0000e960       ?Compute@BigConvexDataBuilder@physx@@QBE_NABUVALENCIESCREATE@2@@Z 1000f960 f   BigConvexDataBuilder.obj
 0001:0000edc0       ?Save@BigConvexDataBuilder@physx@@QBE_NAAVPxOutputStream@2@_N@Z 1000fdc0 f   BigConvexDataBuilder.obj
 0001:0000f280       ??$?_UE@@YAPAXIV?$ReflectionAllocator@E@shdfnd@physx@@PBDH@Z 10010280 f i BigConvexDataBuilder.obj
 0001:0000f2a0       ??$?_UG@@YAPAXIV?$ReflectionAllocator@G@shdfnd@physx@@PBDH@Z 100102a0 f i BigConvexDataBuilder.obj
 0001:0000f2c0       ??$?_UUValency@Gu@physx@@@@YAPAXIV?$ReflectionAllocator@UValency@Gu@physx@@@shdfnd@physx@@PBDH@Z 100102c0 f i BigConvexDataBuilder.obj
 0001:0000f2e0       ??0?$ReflectionAllocator@E@shdfnd@physx@@QAE@PBD@Z 100102e0 f i BigConvexDataBuilder.obj
 0001:0000f300       ??0?$ReflectionAllocator@G@shdfnd@physx@@QAE@PBD@Z 10010300 f i BigConvexDataBuilder.obj
 0001:0000f320       ??0?$ReflectionAllocator@UValency@Gu@physx@@@shdfnd@physx@@QAE@PBD@Z 10010320 f i BigConvexDataBuilder.obj
 0001:0000f340       ??0EDGELISTCREATE@Gu@physx@@QAE@XZ 10010340 f i BigConvexDataBuilder.obj
 0001:0000f3b0       ??0PxVec3@physx@@QAE@XZ    100103b0 f i BigConvexDataBuilder.obj
 0001:0000f3d0       ??0VALENCIESCREATE@physx@@QAE@XZ 100103d0 f i BigConvexDataBuilder.obj
 0001:0000f400       ??_0PxVec3@physx@@QAEAAV01@M@Z 10010400 f i BigConvexDataBuilder.obj
 0001:0000f480       ?GetEdge@EdgeList@Gu@physx@@QBEABUEdgeData@23@I@Z 10010480 f i BigConvexDataBuilder.obj
 0001:0000f4a0       ?GetNbEdges@EdgeList@Gu@physx@@QBEIXZ 100104a0 f i BigConvexDataBuilder.obj
 0001:0000f4c0       ?PxMemZero@physx@@YAPAXPIAXI@Z 100104c0 f i BigConvexDataBuilder.obj
 0001:0000f4e0       ?PxSqrt@physx@@YAMM@Z      100104e0 f i BigConvexDataBuilder.obj
 0001:0000f500       ?allocate@?$ReflectionAllocator@E@shdfnd@physx@@QAEPAXIPBDH@Z 10010500 f i BigConvexDataBuilder.obj
 0001:0000f560       ?allocate@?$ReflectionAllocator@G@shdfnd@physx@@QAEPAXIPBDH@Z 10010560 f i BigConvexDataBuilder.obj
 0001:0000f5c0       ?allocate@?$ReflectionAllocator@UValency@Gu@physx@@@shdfnd@physx@@QAEPAXIPBDH@Z 100105c0 f i BigConvexDataBuilder.obj
 0001:0000f620       ?dot@PxVec3@physx@@QBEMABV12@@Z 10010620 f i BigConvexDataBuilder.obj
 0001:0000f680       ?getName@?$ReflectionAllocator@E@shdfnd@physx@@CAPBDXZ 10010680 f i BigConvexDataBuilder.obj
 0001:0000f6d0       ?getName@?$ReflectionAllocator@G@shdfnd@physx@@CAPBDXZ 100106d0 f i BigConvexDataBuilder.obj
 0001:0000f720       ?getName@?$ReflectionAllocator@UValency@Gu@physx@@@shdfnd@physx@@CAPBDXZ 10010720 f i BigConvexDataBuilder.obj
 0001:0000f770       ?magnitude@PxVec3@physx@@QBEMXZ 10010770 f i BigConvexDataBuilder.obj
 0001:0000f7a0       ?magnitudeSquared@PxVec3@physx@@QBEMXZ 100107a0 f i BigConvexDataBuilder.obj
 0001:0000f800       ?memZero@intrinsics@physx@@YAPAXPIAXI@Z 10010800 f i BigConvexDataBuilder.obj
 0001:0000f820       ?normalize@PxVec3@physx@@QAEMXZ 10010820 f i BigConvexDataBuilder.obj
 0001:0000f870       ?sqrt@intrinsics@physx@@YAMM@Z 10010870 f i BigConvexDataBuilder.obj
 0001:0000f890       _sqrtf                     10010890 f i BigConvexDataBuilder.obj
 0001:0000f910       ??0ConvexHullBuilder@physx@@QAE@PAUConvexHullData@Gu@1@@Z 10010910 f   ConvexHullBuilder.obj
 0001:0000f990       ??1ConvexHullBuilder@physx@@QAE@XZ 10010990 f   ConvexHullBuilder.obj
 0001:0000faa0       ?Init@ConvexHullBuilder@physx@@QAE_NIPBVPxVec3@2@IPBIIPBUPxHullPolygon@2@@Z 10010aa0 f   ConvexHullBuilder.obj
 0001:00010330       ?Save@ConvexHullBuilder@physx@@QBE_NAAVPxOutputStream@2@_N@Z 10011330 f   ConvexHullBuilder.obj
 0001:00010550       ?CreateEdgeList@ConvexHullBuilder@physx@@QAE_NXZ 10011550 f   ConvexHullBuilder.obj
 0001:00011050       ?CreatePolygonData@ConvexHullBuilder@physx@@QAE_NXZ 10012050 f   ConvexHullBuilder.obj
 0001:00011ca0       ?CheckHullPolygons@ConvexHullBuilder@physx@@QBE_NXZ 10012ca0 f   ConvexHullBuilder.obj
 0001:00012360       ?CreateTrianglesFromPolygons@ConvexHullBuilder@physx@@QAE_NXZ 10013360 f   ConvexHullBuilder.obj
 0001:000127d0       ?ComputeGeomCenter@ConvexHullBuilder@physx@@QBE_NAAVPxVec3@2@@Z 100137d0 f   ConvexHullBuilder.obj
 0001:00012920       ?CalculateVertexMapTable@ConvexHullBuilder@physx@@QAE_NI_N@Z 10013920 f   ConvexHullBuilder.obj
 0001:00012b40       ?ComputeHullPolygons@ConvexHullBuilder@physx@@QAE_NABIPBVPxVec3@2@0PBI@Z 10013b40 f   ConvexHullBuilder.obj
 0001:000162c0       ??$?_UUEdgeDescData@Gu@physx@@@@YAPAXIV?$ReflectionAllocator@UEdgeDescData@Gu@physx@@@shdfnd@physx@@PBDH@Z 100172c0 f i ConvexHullBuilder.obj
 0001:000162e0       ??$?_UUHullTriangleData@physx@@@@YAPAXIV?$ReflectionAllocator@UHullTriangleData@physx@@@shdfnd@physx@@PBDH@Z 100172e0 f i ConvexHullBuilder.obj
 0001:00016300       ??$PX_UNUSED@H@@YAXABH@Z   10017300 f i ConvexHullBuilder.obj
 0001:00016310       ??$PlaneEquation@U?$TriangleT@I@Gu@physx@@@@YA?AVPxPlane@physx@@ABU?$TriangleT@I@Gu@1@PBVPxVec3@1@@Z 10017310 f i ConvexHullBuilder.obj
 0001:00016390       ??$swap@E@shdfnd@physx@@YAXAAE0@Z 10017390 f i ConvexHullBuilder.obj
 0001:000163c0       ??0?$ReflectionAllocator@UEdgeDescData@Gu@physx@@@shdfnd@physx@@QAE@PBD@Z 100173c0 f i ConvexHullBuilder.obj
 0001:000163e0       ??0?$ReflectionAllocator@UHullTriangleData@physx@@@shdfnd@physx@@QAE@PBD@Z 100173e0 f i ConvexHullBuilder.obj
 0001:00016400       ??0?$TriangleT@I@Gu@physx@@QAE@III@Z 10017400 f i ConvexHullBuilder.obj
 0001:00016460       ??0ADJACENCIESCREATE@physx@@QAE@XZ 10017460 f i ConvexHullBuilder.obj
 0001:000164c0       ??0HullPolygonData@Gu@physx@@QAE@ABU012@@Z 100174c0 f i ConvexHullBuilder.obj
 0001:00016520       ??0PxPlane@physx@@QAE@ABV01@@Z 10017520 f i ConvexHullBuilder.obj
 0001:00016560       ??0PxPlane@physx@@QAE@ABVPxVec3@1@00@Z 10017560 f i ConvexHullBuilder.obj
 0001:00016600       ??0PxPlane@physx@@QAE@MMMM@Z 10017600 f i ConvexHullBuilder.obj
 0001:00016660       ??4PxPlane@physx@@QAEAAV01@ABV01@@Z 10017660 f i ConvexHullBuilder.obj
 0001:000166a0       ??DPxVec3@physx@@QBE?AV01@M@Z 100176a0 f i ConvexHullBuilder.obj
 0001:00016710       ??GPxVec3@physx@@QBE?AV01@ABV01@@Z 10017710 f i ConvexHullBuilder.obj
 0001:00016780       ??GPxVec3@physx@@QBE?AV01@XZ 10017780 f i ConvexHullBuilder.obj
 0001:000167f0       ??YPxVec3@physx@@QAEAAV01@ABV01@@Z 100177f0 f i ConvexHullBuilder.obj
 0001:00016860       ?ComputeNbPolygons@ConvexHullBuilder@physx@@QBEIXZ 10017860 f i ConvexHullBuilder.obj
 0001:000168a0       ?Flip@physx@@YAXAAUHullTriangleData@1@@Z 100178a0 f i ConvexHullBuilder.obj
 0001:00016900       ?GetAdjTri@AdjTriangle@physx@@QBEIW4SharedEdgeIndex@2@@Z 10017900 f i ConvexHullBuilder.obj
 0001:00016930       ?GetFaces@ConvexHullBuilder@physx@@QBEPBUHullTriangleData@2@XZ 10017930 f i ConvexHullBuilder.obj
 0001:00016950       ?GetNbFaces@ConvexHullBuilder@physx@@QBEIXZ 10017950 f i ConvexHullBuilder.obj
 0001:00016970       ?HasActiveEdge01@AdjTriangle@physx@@QBEHXZ 10017970 f i ConvexHullBuilder.obj
 0001:000169a0       ?HasActiveEdge12@AdjTriangle@physx@@QBEHXZ 100179a0 f i ConvexHullBuilder.obj
 0001:000169d0       ?HasActiveEdge20@AdjTriangle@physx@@QBEHXZ 100179d0 f i ConvexHullBuilder.obj
 0001:00016a00       ?HasActiveEdge@AdjTriangle@physx@@QBEHI@Z 10017a00 f i ConvexHullBuilder.obj
 0001:00016a30       ?PxRecipSqrt@physx@@YAMM@Z 10017a30 f i ConvexHullBuilder.obj
 0001:00016a50       ?allocate@?$ReflectionAllocator@UEdgeDescData@Gu@physx@@@shdfnd@physx@@QAEPAXIPBDH@Z 10017a50 f i ConvexHullBuilder.obj
 0001:00016ab0       ?allocate@?$ReflectionAllocator@UHullTriangleData@physx@@@shdfnd@physx@@QAEPAXIPBDH@Z 10017ab0 f i ConvexHullBuilder.obj
 0001:00016b10       ?area@?$TriangleT@I@Gu@physx@@QBEMPBVPxVec3@3@@Z 10017b10 f i ConvexHullBuilder.obj
 0001:00016bd0       ?center@?$TriangleT@I@Gu@physx@@QBEXPBVPxVec3@3@AAV43@@Z 10017bd0 f i ConvexHullBuilder.obj
 0001:00016c90       ?cross@PxVec3@physx@@QBE?AV12@ABV12@@Z 10017c90 f i ConvexHullBuilder.obj
 0001:00016d50       ?distance@PxPlane@physx@@QBEMABVPxVec3@2@@Z 10017d50 f i ConvexHullBuilder.obj
 0001:00016d90       ?flip@?$TriangleT@I@Gu@physx@@QAEXXZ 10017d90 f i ConvexHullBuilder.obj
 0001:00016dd0       ?flip@physx@@YAXAAG@Z      10017dd0 f i ConvexHullBuilder.obj
 0001:00016e40       ?flip@physx@@YAXAAM@Z      10017e40 f i ConvexHullBuilder.obj
 0001:00016ef0       ?flipData@Gu@physx@@YAXAAUHullPolygonData@12@@Z 10017ef0 f i ConvexHullBuilder.obj
 0001:00016f50       ?getName@?$ReflectionAllocator@UEdgeDescData@Gu@physx@@@shdfnd@physx@@CAPBDXZ 10017f50 f i ConvexHullBuilder.obj
 0001:00016fa0       ?getName@?$ReflectionAllocator@UHullTriangleData@physx@@@shdfnd@physx@@CAPBDXZ 10017fa0 f i ConvexHullBuilder.obj
 0001:00016ff0       ?getNormalized@PxVec3@physx@@QBE?AV12@XZ 10017ff0 f i ConvexHullBuilder.obj
 0001:000170b0       ?recipSqrt@intrinsics@physx@@YAMM@Z 100180b0 f i ConvexHullBuilder.obj
 0001:00017100       ?to8@shdfnd@physx@@YAEI@Z  10018100 f i ConvexHullBuilder.obj
 0001:00017160       ??0ConvexMeshBuilder@physx@@QAE@XZ 10018160 f   ConvexMeshBuilder.obj
 0001:000171a0       ??1ConvexMeshBuilder@physx@@UAE@XZ 100181a0 f   ConvexMeshBuilder.obj
 0001:000171e0       ?loadFromDesc@ConvexMeshBuilder@physx@@QAE_NABVPxConvexMeshDesc@2@W4Enum@PxPlatform@2@@Z 100181e0 f   ConvexMeshBuilder.obj
 0001:00017290       ?save@ConvexMeshBuilder@physx@@QBE_NAAVPxOutputStream@2@_N@Z 10018290 f   ConvexMeshBuilder.obj
 0001:00017580       ?loadConvexHull@ConvexMeshBuilder@physx@@QAE_NABVPxConvexMeshDesc@2@@Z 10018580 f   ConvexMeshBuilder.obj
 0001:000178a0       ?computeHullPolygons@ConvexMeshBuilder@physx@@QAE_NABIPBVPxVec3@2@0PBIAAVPxAllocatorCallback@2@AAIAAPAV32@4AAPAI4AAPAUPxHullPolygon@2@@Z 100188a0 f   ConvexMeshBuilder.obj
 0001:00017b70       ?computeGaussMaps@ConvexMeshBuilder@physx@@QAE_NXZ 10018b70 f   ConvexMeshBuilder.obj
 0001:00017c50       ?computeMassInfo@ConvexMeshBuilder@physx@@QAEXXZ 10018c50 f   ConvexMeshBuilder.obj
 0001:00017eb0       ?computeInternalObjects@ConvexMeshBuilder@physx@@QAEXXZ 10018eb0 f   ConvexMeshBuilder.obj
 0001:00018de0       ??0?$PxFlags@W4Enum@PxBaseFlag@physx@@G@physx@@QAE@ABV01@@Z 10019de0 f i ConvexMeshBuilder.obj
 0001:00018e10       ??0?$PxFlags@W4Enum@PxConvexFlag@physx@@G@physx@@QAE@ABV01@@Z 10019e10 f i ConvexMeshBuilder.obj
 0001:00018e40       ??0?$ReflectionAllocator@VBigConvexData@physx@@@shdfnd@physx@@QAE@PBD@Z 10019e40 f i ConvexMeshBuilder.obj
 0001:00018e60       ??0PxBoundedData@physx@@QAE@XZ 10019e60 f i ConvexMeshBuilder.obj
 0001:00018e90       ??0PxIntegrals@physx@@QAE@XZ 10019e90 f i ConvexMeshBuilder.obj
 0001:00018eb0       ??0PxMat33@physx@@QAE@ABVPxVec3@1@00@Z 10019eb0 f i ConvexMeshBuilder.obj
 0001:00018f00       ??0PxSimpleTriangleMesh@physx@@QAE@XZ 10019f00 f i ConvexMeshBuilder.obj
 0001:00018f40       ??0PxStridedData@physx@@QAE@XZ 10019f40 f i ConvexMeshBuilder.obj
 0001:00018f70       ??2UserAllocated@shdfnd@physx@@SAPAXIPAX@Z 10019f70 f i ConvexMeshBuilder.obj
 0001:00018f80       ??3UserAllocated@shdfnd@physx@@SAXPAX@Z 10019f80 f i ConvexMeshBuilder.obj
 0001:00018fb0       ??4PxMat33@physx@@QAEAAV01@ABV01@@Z 10019fb0 f i ConvexMeshBuilder.obj
 0001:00019000       ??APxMat33@physx@@QAEAAVPxVec3@1@I@Z 1001a000 f i ConvexMeshBuilder.obj
 0001:00019020       ??B?$PxFlags@W4Enum@PxBaseFlag@physx@@G@physx@@QBE_NXZ 1001a020 f i ConvexMeshBuilder.obj
 0001:00019050       ??B?$PxFlags@W4Enum@PxConvexFlag@physx@@G@physx@@QBE_NXZ 1001a050 f i ConvexMeshBuilder.obj
 0001:00019080       ??GPxMat33@physx@@QBE?AV01@XZ 1001a080 f i ConvexMeshBuilder.obj
 0001:000190e0       ??I?$PxFlags@W4Enum@PxBaseFlag@physx@@G@physx@@QBE?AV01@W4Enum@PxBaseFlag@1@@Z 1001a0e0 f i ConvexMeshBuilder.obj
 0001:00019130       ??I?$PxFlags@W4Enum@PxConvexFlag@physx@@G@physx@@QBE?AV01@W4Enum@PxConvexFlag@1@@Z 1001a130 f i ConvexMeshBuilder.obj
 0001:00019180       ??RPxMat33@physx@@QAEAAMII@Z 1001a180 f i ConvexMeshBuilder.obj
 0001:000191b0       ??XPxVec3@physx@@QAEAAV01@M@Z 1001a1b0 f i ConvexMeshBuilder.obj
 0001:00019210       ??_EConvexMeshBuilder@physx@@W7AEPAXI@Z 1001a210 f i ConvexMeshBuilder.obj
 0001:00019220       ??_GBigConvexData@physx@@QAEPAXI@Z 1001a220 f i ConvexMeshBuilder.obj
 0001:00019260       ??_GConvexMeshBuilder@physx@@UAEPAXI@Z 1001a260 f i ConvexMeshBuilder.obj
 0001:00019260       ??_EConvexMeshBuilder@physx@@UAEPAXI@Z 1001a260 f i ConvexMeshBuilder.obj
 0001:000192a0       ?PxGetGaussMapVertexLimitForPlatform@physx@@YAIW4Enum@PxPlatform@1@@Z 1001a2a0 f i ConvexMeshBuilder.obj
 0001:00019350       ?allocate@?$ReflectionAllocator@VBigConvexData@physx@@@shdfnd@physx@@QAEPAXIPBDH@Z 1001a350 f i ConvexMeshBuilder.obj
 0001:000193b0       ?getName@?$ReflectionAllocator@VBigConvexData@physx@@@shdfnd@physx@@CAPBDXZ 1001a3b0 f i ConvexMeshBuilder.obj
 0001:00019400       ?getOriginInertia@PxIntegrals@physx@@QAEXAAVPxMat33@2@@Z 1001a400 f i ConvexMeshBuilder.obj
 0001:000194a0       ?isReleasable@PxBase@physx@@UBE_NXZ 1001a4a0 f i ConvexMeshBuilder.obj
 0001:000194d0       ?isValid@PxConvexMeshDesc@physx@@QBE_NXZ 1001a4d0 f i ConvexMeshBuilder.obj
 0001:000196d0       ?largestAxis@shdfnd@physx@@YAIABVPxVec3@2@@Z 1001a6d0 f i ConvexMeshBuilder.obj
 0001:00019750       ?markSerializedMem@Cm@physx@@YAXPAXI@Z 1001a750 f i ConvexMeshBuilder.obj
 0001:00019790       ?requires@ConvexMesh@Gu@physx@@UAEXAAVPxProcessPxBaseCallback@3@@Z 1001a790 f i ConvexMeshBuilder.obj
 0001:000197a0       ??0HullLibrary@physx@@QAE@XZ 1001a7a0 f   hulllib.obj
 0001:00019810       ??1HullLibrary@physx@@QAE@XZ 1001a810 f   hulllib.obj
 0001:00019850       ?CreateConvexHull@HullLibrary@physx@@QAE?AW4HullError@2@ABVHullDesc@2@AAVHullResult@2@@Z 1001a850 f   hulllib.obj
 0001:00019ea0       ?ReleaseResult@HullLibrary@physx@@QAE?AW4HullError@2@AAVHullResult@2@@Z 1001aea0 f   hulllib.obj
 0001:00019f20       ?CreateTriangleMesh@HullLibrary@physx@@QAE?AW4HullError@2@AAVHullResult@2@PAVConvexHullTriangleInterface@2@@Z 1001af20 f   hulllib.obj
 0001:0001a080       ?b2bfix@HullLibrary@physx@@AAEXPAVTri@2@0@Z 1001b080 f   hulllib.obj
 0001:0001a250       ?removeb2b@HullLibrary@physx@@AAEXPAVTri@2@0@Z 1001b250 f   hulllib.obj
 0001:0001a2a0       ?checkit@HullLibrary@physx@@ABEXPAVTri@2@@Z 1001b2a0 f   hulllib.obj
 0001:0001a420       ?extrude@HullLibrary@physx@@AAEXPAVTri@2@H@Z 1001b420 f   hulllib.obj
 0001:0001a840       ?extrudable@HullLibrary@physx@@ABEPAVTri@2@M@Z 1001b840 f   hulllib.obj
 0001:0001a8f0       ?calchullgen@HullLibrary@physx@@AAE?AW4HullError@2@PAVfloat3@2@HHM@Z 1001b8f0 f   hulllib.obj
 0001:0001b6d0       ?calchull@HullLibrary@physx@@AAE?AW4HullError@2@PAVfloat3@2@HAAPAHAAHAAPAV42@2HM@Z 1001c6d0 f   hulllib.obj
 0001:0001b960       ?expandhull@HullLibrary@physx@@AAE?AW4HullError@2@PAVfloat3@2@HAAPAV42@AAHM@Z 1001c960 f   hulllib.obj
 0001:0001c3c0       ?calchullpbev@HullLibrary@physx@@AAE?AW4HullError@2@PAVfloat3@2@HHAAV?$Array@VPlane@physx@@@hullLibArray@2@M@Z 1001d3c0 f   hulllib.obj
 0001:0001cce0       ?ComputeHull@HullLibrary@physx@@AAE?AW4HullError@2@IPBMAAVPHullResult@2@IMM@Z 1001dce0 f   hulllib.obj
 0001:0001cfc0       ?overhullv@HullLibrary@physx@@AAE?AW4HullError@2@PAVfloat3@2@HHAAPAV42@AAHAAPAH2MMHM@Z 1001dfc0 f   hulllib.obj
 0001:0001dcf0       ??0ConvexH@physx@@QAE@HHH@Z 1001ecf0 f   hulllib.obj
 0001:000207a0       ?neib@Tri@physx@@QAEAAHHH@Z 100217a0 f   hulllib.obj
 0001:000258e0       ??$?2V?$ReflectionAllocator@VConvexH@physx@@@shdfnd@physx@@@UserAllocated@shdfnd@physx@@SAPAXIV?$ReflectionAllocator@VConvexH@physx@@@12@PBDH@Z 100268e0 f i hulllib.obj
 0001:00025900       ??$?2V?$ReflectionAllocator@VTri@physx@@@shdfnd@physx@@@UserAllocated@shdfnd@physx@@SAPAXIV?$ReflectionAllocator@VTri@physx@@@12@PBDH@Z 10026900 f i hulllib.obj
 0001:00025920       ??$?_UM@@YAPAXIV?$ReflectionAllocator@M@shdfnd@physx@@PBDH@Z 10026920 f i hulllib.obj
 0001:00025940       ??$Max@M@physx@@YAMABM0@Z  10026940 f i hulllib.obj
 0001:00025990       ??$Min@H@physx@@YAHABH0@Z  10026990 f i hulllib.obj
 0001:000259d0       ??$Min@M@physx@@YAMABM0@Z  100269d0 f i hulllib.obj
 0001:00025a20       ??$Swap@H@physx@@YAXAAH0@Z 10026a20 f i hulllib.obj
 0001:00025a50       ??$maxdir@Vfloat3@physx@@@physx@@YAHPBVfloat3@0@HABV10@@Z 10026a50 f i hulllib.obj
 0001:00025b40       ??$maxdirfiltered@Vfloat3@physx@@@physx@@YAHPBVfloat3@0@HABV10@PA_N@Z 10026b40 f i hulllib.obj
 0001:00025c90       ??$maxdirsterid@Vfloat3@physx@@@physx@@YAHPBVfloat3@0@HABV10@AAV?$Array@H@hullLibArray@0@@Z 10026c90 f i hulllib.obj
 0001:000261d0       ??0?$Array@H@hullLibArray@physx@@QAE@H@Z 100271d0 f i hulllib.obj
 0001:00026220       ??0?$Array@PAVTri@physx@@@hullLibArray@physx@@QAE@H@Z 10027220 f i hulllib.obj
 0001:00026270       ??0?$Array@UExpandPlane@physx@@@hullLibArray@physx@@QAE@H@Z 10027270 f i hulllib.obj
 0001:000262c0       ??0?$Array@VHalfEdge@ConvexH@physx@@@hullLibArray@physx@@QAE@H@Z 100272c0 f i hulllib.obj
 0001:00026310       ??0?$Array@VPlane@physx@@@hullLibArray@physx@@QAE@H@Z 10027310 f i hulllib.obj
 0001:00026360       ??0?$Array@Vfloat3@physx@@@hullLibArray@physx@@QAE@H@Z 10027360 f i hulllib.obj
 0001:000263b0       ??0?$Array@Vint3@physx@@@hullLibArray@physx@@QAE@H@Z 100273b0 f i hulllib.obj
 0001:00026400       ??0?$ReflectionAllocator@M@shdfnd@physx@@QAE@PBD@Z 10027400 f i hulllib.obj
 0001:00026420       ??0?$ReflectionAllocator@VConvexH@physx@@@shdfnd@physx@@QAE@PBD@Z 10027420 f i hulllib.obj
 0001:00026440       ??0?$ReflectionAllocator@VTri@physx@@@shdfnd@physx@@QAE@PBD@Z 10027440 f i hulllib.obj
 0001:00026460       ??0?$ScopedPointer@_NVTempAllocator@shdfnd@physx@@@shdfnd@physx@@QAE@XZ 10027460 f i hulllib.obj
 0001:00026480       ??0ExpandPlane@physx@@QAE@XZ 10027480 f i hulllib.obj
 0001:00026510       ??0HalfEdge@ConvexH@physx@@QAE@FEE@Z 10027510 f i hulllib.obj
 0001:00026550       ??0HalfEdge@ConvexH@physx@@QAE@XZ 10027550 f i hulllib.obj
 0001:00026570       ??0PHullResult@physx@@QAE@XZ 10027570 f i hulllib.obj
 0001:000265c0       ??0Plane@physx@@QAE@ABVfloat3@1@M@Z 100275c0 f i hulllib.obj
 0001:00026600       ??0Plane@physx@@QAE@XZ     10027600 f i hulllib.obj
 0001:00026630       ??0Tri@physx@@QAE@HHHPAV?$Array@PAVTri@physx@@@hullLibArray@1@@Z 10027630 f i hulllib.obj
 0001:000266b0       ??0float3@physx@@QAE@MMM@Z 100276b0 f i hulllib.obj
 0001:00026700       ??0float3@physx@@QAE@XZ    10027700 f i hulllib.obj
 0001:00026750       ??0float3x3@physx@@QAE@Vfloat3@1@00@Z 10027750 f i hulllib.obj
 0001:000267c0       ??0float3x3@physx@@QAE@XZ  100277c0 f i hulllib.obj
 0001:00026800       ??0int3@physx@@QAE@HHH@Z   10027800 f i hulllib.obj
 0001:00026840       ??0int4@physx@@QAE@HHHH@Z  10027840 f i hulllib.obj
 0001:00026880       ??1?$Array@H@hullLibArray@physx@@QAE@XZ 10027880 f i hulllib.obj
 0001:000268f0       ??1?$Array@PAVTri@physx@@@hullLibArray@physx@@QAE@XZ 100278f0 f i hulllib.obj
 0001:00026960       ??1?$Array@UExpandPlane@physx@@@hullLibArray@physx@@QAE@XZ 10027960 f i hulllib.obj
 0001:000269d0       ??1?$Array@VHalfEdge@ConvexH@physx@@@hullLibArray@physx@@QAE@XZ 100279d0 f i hulllib.obj
 0001:00026a40       ??1?$Array@VPlane@physx@@@hullLibArray@physx@@QAE@XZ 10027a40 f i hulllib.obj
 0001:00026ab0       ??1?$Array@Vfloat3@physx@@@hullLibArray@physx@@QAE@XZ 10027ab0 f i hulllib.obj
 0001:00026b20       ??1?$Array@Vint3@physx@@@hullLibArray@physx@@QAE@XZ 10027b20 f i hulllib.obj
 0001:00026b90       ??1?$ScopedPointer@_NVTempAllocator@shdfnd@physx@@@shdfnd@physx@@QAE@XZ 10027b90 f i hulllib.obj
 0001:00026bc0       ??1ConvexH@physx@@QAE@XZ   10027bc0 f i hulllib.obj
 0001:00026c00       ??1Tri@physx@@IAE@XZ       10027c00 f i hulllib.obj
 0001:00026c10       ??8physx@@YAHABVPlane@0@0@Z 10027c10 f i hulllib.obj
 0001:00026c70       ??8physx@@YAHABVfloat3@0@0@Z 10027c70 f i hulllib.obj
 0001:00026ce0       ??9physx@@YAHABVfloat3@0@0@Z 10027ce0 f i hulllib.obj
 0001:00026d50       ??A?$Array@H@hullLibArray@physx@@QAEAAHH@Z 10027d50 f i hulllib.obj
 0001:00026dd0       ??A?$Array@PAVTri@physx@@@hullLibArray@physx@@QAEAAPAVTri@2@H@Z 10027dd0 f i hulllib.obj
 0001:00026e50       ??A?$Array@UExpandPlane@physx@@@hullLibArray@physx@@QAEAAUExpandPlane@2@H@Z 10027e50 f i hulllib.obj
 0001:00026ed0       ??A?$Array@VHalfEdge@ConvexH@physx@@@hullLibArray@physx@@QAEAAVHalfEdge@ConvexH@2@H@Z 10027ed0 f i hulllib.obj
 0001:00026f50       ??A?$Array@VPlane@physx@@@hullLibArray@physx@@QAEAAVPlane@2@H@Z 10027f50 f i hulllib.obj
 0001:00026fd0       ??A?$Array@Vfloat3@physx@@@hullLibArray@physx@@QAEAAVfloat3@2@H@Z 10027fd0 f i hulllib.obj
 0001:00027050       ??Afloat3@physx@@QAEAAMH@Z 10028050 f i hulllib.obj
 0001:000270c0       ??Afloat3@physx@@QBEABMH@Z 100280c0 f i hulllib.obj
 0001:00027130       ??Afloat3x3@physx@@QAEAAVfloat3@1@H@Z 10028130 f i hulllib.obj
 0001:000271a0       ??Afloat3x3@physx@@QBEABVfloat3@1@H@Z 100281a0 f i hulllib.obj
 0001:00027210       ??Aint3@physx@@QAEAAHH@Z   10028210 f i hulllib.obj
 0001:00027230       ??Aint3@physx@@QBEABHH@Z   10028230 f i hulllib.obj
 0001:00027250       ??Aint4@physx@@QAEAAHH@Z   10028250 f i hulllib.obj
 0001:00027270       ??B?$ScopedPointer@_NVTempAllocator@shdfnd@physx@@@shdfnd@physx@@QBEPA_NXZ 10028270 f i hulllib.obj
 0001:00027290       ??_G?$Array@PAVTri@physx@@@hullLibArray@physx@@QAEPAXI@Z 10028290 f i hulllib.obj
 0001:000272d0       ??_GConvexH@physx@@QAEPAXI@Z 100282d0 f i hulllib.obj
 0001:00027310       ??_GTri@physx@@IAEPAXI@Z   10028310 f i hulllib.obj
 0001:00027350       ?Add@?$Array@H@hullLibArray@physx@@QAEAAHH@Z 10028350 f i hulllib.obj
 0001:00027440       ?Add@?$Array@PAVTri@physx@@@hullLibArray@physx@@QAEAAPAVTri@3@PAV43@@Z 10028440 f i hulllib.obj
 0001:00027530       ?Add@?$Array@UExpandPlane@physx@@@hullLibArray@physx@@QAEAAUExpandPlane@3@U43@@Z 10028530 f i hulllib.obj
 0001:00027630       ?Add@?$Array@VPlane@physx@@@hullLibArray@physx@@QAEAAVPlane@3@V43@@Z 10028630 f i hulllib.obj
 0001:00027740       ?Add@?$Array@Vfloat3@physx@@@hullLibArray@physx@@QAEAAVfloat3@3@V43@@Z 10028740 f i hulllib.obj
 0001:00027840       ?Add@?$Array@Vint3@physx@@@hullLibArray@physx@@QAEAAVint3@3@V43@@Z 10028840 f i hulllib.obj
 0001:00027940       ?HasHullFlag@HullDesc@physx@@QBE_NW4HullFlag@2@@Z 10028940 f i hulllib.obj
 0001:00027980       ?PxMemSet@physx@@YAPAXPIAXHI@Z 10028980 f i hulllib.obj
 0001:000279a0       ?SetSize@?$Array@PAVTri@physx@@@hullLibArray@physx@@QAEXH@Z 100289a0 f i hulllib.obj
 0001:00027a30       ?SetSize@?$Array@Vint3@physx@@@hullLibArray@physx@@QAEXH@Z 10028a30 f i hulllib.obj
 0001:00027ac0       ?allocate@?$Array@H@hullLibArray@physx@@QAEXH@Z 10028ac0 f i hulllib.obj
 0001:00027ca0       ?allocate@?$Array@PAVTri@physx@@@hullLibArray@physx@@QAEXH@Z 10028ca0 f i hulllib.obj
 0001:00027e80       ?allocate@?$Array@UExpandPlane@physx@@@hullLibArray@physx@@QAEXH@Z 10028e80 f i hulllib.obj
 0001:00028060       ?allocate@?$Array@VHalfEdge@ConvexH@physx@@@hullLibArray@physx@@QAEXH@Z 10029060 f i hulllib.obj
 0001:00028240       ?allocate@?$Array@VPlane@physx@@@hullLibArray@physx@@QAEXH@Z 10029240 f i hulllib.obj
 0001:00028440       ?allocate@?$Array@Vfloat3@physx@@@hullLibArray@physx@@QAEXH@Z 10029440 f i hulllib.obj
 0001:00028630       ?allocate@?$Array@Vint3@physx@@@hullLibArray@physx@@QAEXH@Z 10029630 f i hulllib.obj
 0001:00028820       ?allocate@?$ReflectionAllocator@M@shdfnd@physx@@QAEPAXIPBDH@Z 10029820 f i hulllib.obj
 0001:00028880       ?allocate@?$ReflectionAllocator@VConvexH@physx@@@shdfnd@physx@@QAEPAXIPBDH@Z 10029880 f i hulllib.obj
 0001:000288e0       ?allocate@?$ReflectionAllocator@VTri@physx@@@shdfnd@physx@@QAEPAXIPBDH@Z 100298e0 f i hulllib.obj
 0001:00028940       ?cos@@YAMM@Z               10029940 f i hulllib.obj
 0001:00028960       ?distance@Plane@physx@@QBEMABVfloat3@2@@Z 10029960 f i hulllib.obj
 0001:000289d0       ?getName@?$ReflectionAllocator@M@shdfnd@physx@@CAPBDXZ 100299d0 f i hulllib.obj
 0001:00028a20       ?getName@?$ReflectionAllocator@VConvexH@physx@@@shdfnd@physx@@CAPBDXZ 10029a20 f i hulllib.obj
 0001:00028a70       ?getName@?$ReflectionAllocator@VTri@physx@@@shdfnd@physx@@CAPBDXZ 10029a70 f i hulllib.obj
 0001:00028ac0       ?memSet@intrinsics@physx@@YAPAXPIAXHI@Z 10029ac0 f i hulllib.obj
 0001:00028ae0       ?to8@shdfnd@physx@@YAEG@Z  10029ae0 f i hulllib.obj
 0001:00028b40       _cosf                      10029b40 f i hulllib.obj
 0001:00028b70       _sinf                      10029b70 f i hulllib.obj
 0001:00028bf0       ?computeVolumeIntegrals@physx@@YA_NABVPxSimpleTriangleMesh@1@MAAUPxIntegrals@1@@Z 10029bf0 f   VolumeIntegration.obj
 0001:00028c50       ?computeVolumeIntegralsEberly@physx@@YA_NABVPxSimpleTriangleMesh@1@MAAUPxIntegrals@1@ABVPxVec3@1@@Z 10029c50 f   VolumeIntegration.obj
 0001:00028ca0       ??0VolumeIntegrator@?A0xddd7b808@physx@@QAE@VPxSimpleTriangleMesh@2@N@Z 10029ca0 f   VolumeIntegration.obj
 0001:00028cf0       ??1VolumeIntegrator@?A0xddd7b808@physx@@QAE@XZ 10029cf0 f   VolumeIntegration.obj
 0001:00028d00       ?computeVolumeIntegrals@VolumeIntegrator@?A0xddd7b808@physx@@QAE_NAAUPxIntegrals@3@@Z 10029d00 f   VolumeIntegration.obj
 0001:000294e0       ?computeCenterOfMass@VolumeIntegrator@?A0xddd7b808@physx@@AAE?AVPxVec3@3@XZ 1002a4e0 f   VolumeIntegration.obj
 0001:000295c0       ?computeInertiaTensor@VolumeIntegrator@?A0xddd7b808@physx@@AAEXPAN@Z 1002a5c0 f   VolumeIntegration.obj
 0001:000297f0       ?computeCOMInertiaTensor@VolumeIntegrator@?A0xddd7b808@physx@@AAEXPAN@Z 1002a7f0 f   VolumeIntegration.obj
 0001:00029ae0       ?computeFaceNormal@VolumeIntegrator@?A0xddd7b808@physx@@AAEXAAUFace@123@PAI@Z 1002aae0 f   VolumeIntegration.obj
 0001:00029c00       ?computeProjectionIntegrals@VolumeIntegrator@?A0xddd7b808@physx@@AAEXABUFace@123@@Z 1002ac00 f   VolumeIntegration.obj
 0001:0002a290       ?computeFaceIntegrals@VolumeIntegrator@?A0xddd7b808@physx@@AAEXABUFace@123@@Z 1002b290 f   VolumeIntegration.obj
 0001:0002a820       ??0VolumeIntegratorEberly@?A0xddd7b808@physx@@QAE@ABVPxSimpleTriangleMesh@2@N@Z 1002b820 f   VolumeIntegration.obj
 0001:0002a860       ??1VolumeIntegratorEberly@?A0xddd7b808@physx@@QAE@XZ 1002b860 f   VolumeIntegration.obj
 0001:0002a870       ?computeVolumeIntegrals@VolumeIntegratorEberly@?A0xddd7b808@physx@@QAE_NAAUPxIntegrals@3@ABVPxVec3@3@@Z 1002b870 f   VolumeIntegration.obj
 0001:0002b960       ?subexpressions@VolumeIntegratorEberly@?A0xddd7b808@physx@@AAEXNNNAAN00000@Z 1002c960 f   VolumeIntegration.obj
 0001:0002c610       ??4?$PxFlags@W4Enum@PxMeshFlag@physx@@G@physx@@QAEAAV01@ABV01@@Z 1002d610 f i VolumeIntegration.obj
 0001:0002c640       ??4PxSimpleTriangleMesh@physx@@QAEAAV01@ABV01@@Z 1002d640 f i VolumeIntegration.obj
 0001:0002c6b0       ?isZero@PxVec3@physx@@QBE_NXZ 1002d6b0 f i VolumeIntegration.obj
 0001:0002c730       ?ComputeNbBoundaryEdges@AdjTriangle@physx@@QBEIXZ 1002d730 f   Adjacencies.obj
 0001:0002c7c0       ?ComputeNbNeighbors@AdjTriangle@physx@@QBEIXZ 1002d7c0 f   Adjacencies.obj
 0001:0002c850       ?HasNeighbor@AdjTriangle@physx@@QBE_NIPAI@Z 1002d850 f   Adjacencies.obj
 0001:0002c940       ?Flip@AdjTriangle@physx@@QAEXXZ 1002d940 f   Adjacencies.obj
 0001:0002c970       ??0Adjacencies@physx@@QAE@XZ 1002d970 f   Adjacencies.obj
 0001:0002c9a0       ??1Adjacencies@physx@@QAE@XZ 1002d9a0 f   Adjacencies.obj
 0001:0002c9f0       ?Load@Adjacencies@physx@@QAE_NAAVPxInputStream@2@@Z 1002d9f0 f   Adjacencies.obj
 0001:0002caf0       ?Walk@Adjacencies@physx@@QAE_NP6AXABUCommonWalkParams@2@IIII@ZPAX@Z 1002daf0 f   Adjacencies.obj
 0001:0002cc00       ?Walk2@Adjacencies@physx@@QAE_NP6AXABUCommonWalkParams@2@IIII@ZPAXPBVPxVec3@2@PBU?$TriangleT@I@Gu@2@@Z 1002dc00 f   Adjacencies.obj
 0001:0002cd40       ?ComputeNbBoundaryEdges@Adjacencies@physx@@QBEIXZ 1002dd40 f   Adjacencies.obj
 0001:0002cda0       ?GetBoundaryVertices@Adjacencies@physx@@QBE_NIPA_NPBU?$TriangleT@I@Gu@2@@Z 1002dda0 f   Adjacencies.obj
 0001:0002cfb0       ?MakeLastRef@Adjacencies@physx@@QAE_NAAVAdjTriangle@2@IPAU?$TriangleT@I@Gu@2@@Z 1002dfb0 f   Adjacencies.obj
 0001:0002d230       ?AssignNewEdgeCode@Adjacencies@physx@@AAEXIE@Z 1002e230 f   Adjacencies.obj
 0001:0002d2b0       ??0AdjacenciesBuilder@physx@@QAE@XZ 1002e2b0 f   Adjacencies.obj
 0001:0002d2d0       ??1AdjacenciesBuilder@physx@@QAE@XZ 1002e2d0 f   Adjacencies.obj
 0001:0002d2f0       ?Init@AdjacenciesBuilder@physx@@QAE_NABUADJACENCIESCREATE@2@@Z 1002e2f0 f   Adjacencies.obj
 0001:0002ec20       ??$?_UV?$ReflectionAllocator@VAdjEdge@@@shdfnd@physx@@@UserAllocated@shdfnd@physx@@SAPAXIV?$ReflectionAllocator@VAdjEdge@@@12@PBDH@Z 1002fc20 f i Adjacencies.obj
 0001:0002ec40       ??$?_UV?$ReflectionAllocator@VAdjTriangle@physx@@@shdfnd@physx@@@UserAllocated@shdfnd@physx@@SAPAXIV?$ReflectionAllocator@VAdjTriangle@physx@@@12@PBDH@Z 1002fc40 f i Adjacencies.obj
 0001:0002ec60       ??$swap@M@shdfnd@physx@@YAXAAM0@Z 1002fc60 f i Adjacencies.obj
 0001:0002eca0       ??0?$ReflectionAllocator@VAdjEdge@@@shdfnd@physx@@QAE@PBD@Z 1002fca0 f i Adjacencies.obj
 0001:0002ecc0       ??0?$ReflectionAllocator@VAdjTriangle@physx@@@shdfnd@physx@@QAE@PBD@Z 1002fcc0 f i Adjacencies.obj
 0001:0002ece0       ??0?$TriangleT@I@Gu@physx@@QAE@XZ 1002fce0 f i Adjacencies.obj
 0001:0002ed00       ??0AdjEdge@@QAE@XZ         1002fd00 f i Adjacencies.obj
 0001:0002ed20       ??0AdjTriangle@physx@@QAE@XZ 1002fd20 f i Adjacencies.obj
 0001:0002ed40       ??0PrivateWalkParams@?1??Walk2@Adjacencies@physx@@QAE_NP6AXABUCommonWalkParams@3@IIII@ZPAXPBVPxVec3@3@PBU?$TriangleT@I@Gu@3@@Z@QAE@XZ 1002fd40 f i Adjacencies.obj
 0001:0002ed60       ??1AdjEdge@@QAE@XZ         1002fd60 f i Adjacencies.obj
 0001:0002ed70       ??1AdjTriangle@physx@@QAE@XZ 1002fd70 f i Adjacencies.obj
 0001:0002ed80       ??_EAdjEdge@@QAEPAXI@Z     1002fd80 f i Adjacencies.obj
 0001:0002ee10       ??_EAdjTriangle@physx@@QAEPAXI@Z 1002fe10 f i Adjacencies.obj
 0001:0002eea0       ??_I@YGXPAXIHP6EX0@Z@Z     1002fea0 f i Adjacencies.obj
 0001:0002eee0       ??_VUserAllocated@shdfnd@physx@@SAXPAX@Z 1002fee0 f i Adjacencies.obj
 0001:0002ef10       ?GetEdgeTriangle@EdgeList@Gu@physx@@QBEABUEdgeTriangleData@23@I@Z 1002ff10 f i Adjacencies.obj
 0001:0002ef30       ?HasActiveEdge01@EdgeTriangleAC@Gu@physx@@SAHABUEdgeTriangleData@23@@Z 1002ff30 f i Adjacencies.obj
 0001:0002ef50       ?HasActiveEdge12@EdgeTriangleAC@Gu@physx@@SAHABUEdgeTriangleData@23@@Z 1002ff50 f i Adjacencies.obj
 0001:0002ef70       ?HasActiveEdge20@EdgeTriangleAC@Gu@physx@@SAHABUEdgeTriangleData@23@@Z 1002ff70 f i Adjacencies.obj
 0001:0002ef90       ?allocate@?$ReflectionAllocator@VAdjEdge@@@shdfnd@physx@@QAEPAXIPBDH@Z 1002ff90 f i Adjacencies.obj
 0001:0002eff0       ?allocate@?$ReflectionAllocator@VAdjTriangle@physx@@@shdfnd@physx@@QAEPAXIPBDH@Z 1002fff0 f i Adjacencies.obj
 0001:0002f050       ?findEdge@?$TriangleT@I@Gu@physx@@QBEEII@Z 10030050 f i Adjacencies.obj
 0001:0002f1c0       ?getName@?$ReflectionAllocator@VAdjEdge@@@shdfnd@physx@@CAPBDXZ 100301c0 f i Adjacencies.obj
 0001:0002f210       ?getName@?$ReflectionAllocator@VAdjTriangle@physx@@@shdfnd@physx@@CAPBDXZ 10030210 f i Adjacencies.obj
 0001:0002f260       _PxCreateCooking           10030260 f   Cooking.obj
 0001:0002f310       ?release@Cooking@physx@@UAEXXZ 10030310 f   Cooking.obj
 0001:0002f350       ?setParams@Cooking@physx@@UAEXABUPxCookingParams@2@@Z 10030350 f   Cooking.obj
 0001:0002f370       ?getParams@Cooking@physx@@UAEABUPxCookingParams@2@XZ 10030370 f   Cooking.obj
 0001:0002f390       ?platformMismatch@Cooking@physx@@UAE_NXZ 10030390 f   Cooking.obj
 0001:0002f4c0       ?cookTriangleMesh@Cooking@physx@@UAE_NABVPxTriangleMeshDesc@2@AAVPxOutputStream@2@@Z 100304c0 f   Cooking.obj
 0001:0002f620       ?createTriangleMesh@Cooking@physx@@UAEPAVPxTriangleMesh@2@ABVPxTriangleMeshDesc@2@AAVPxPhysicsInsertionCallback@2@@Z 10030620 f   Cooking.obj
 0001:0002f7c0       ?validateTriangleMesh@Cooking@physx@@UAE_NABVPxTriangleMeshDesc@2@@Z 100307c0 f   Cooking.obj
 0001:0002f860       ?cookConvexMesh@Cooking@physx@@UAE_NABVPxConvexMeshDesc@2@AAVPxOutputStream@2@PAW4Enum@PxConvexMeshCookingResult@2@@Z 10030860 f   Cooking.obj
 0001:0002fd10       ?computeHullPolygons@Cooking@physx@@UAE_NABVPxSimpleTriangleMesh@2@AAVPxAllocatorCallback@2@AAIAAPAVPxVec3@2@2AAPAI2AAPAUPxHullPolygon@2@@Z 10030d10 f   Cooking.obj
 0001:0002fed0       ?cookHeightField@Cooking@physx@@UAE_NABVPxHeightFieldDesc@2@AAVPxOutputStream@2@@Z 10030ed0 f   Cooking.obj
 0001:000300c0       ?createHeightField@Cooking@physx@@UAEPAVPxHeightField@2@ABVPxHeightFieldDesc@2@AAVPxPhysicsInsertionCallback@2@@Z 100310c0 f   Cooking.obj
 0001:00030290       ?loadTriangleMeshDesc@Cooking@physx@@AAE_NABVPxTriangleMeshDesc@2@AAVTriangleMeshBuilder@2@@Z 10031290 f   Cooking.obj
 0001:000307a0       ??$?2V?$ReflectionAllocator@VCooking@physx@@@shdfnd@physx@@@UserAllocated@shdfnd@physx@@SAPAXIV?$ReflectionAllocator@VCooking@physx@@@12@PBDH@Z 100317a0 f i Cooking.obj
 0001:000307c0       ??$PX_UNUSED@VPxFoundation@physx@@@@YAXABVPxFoundation@physx@@@Z 100317c0 f i Cooking.obj
 0001:000307d0       ??0?$PxFlags@W4Enum@PxConvexFlag@physx@@G@physx@@QAE@W4Enum@PxConvexFlag@1@@Z 100317d0 f i Cooking.obj
 0001:000307f0       ??0?$PxFlags@W4Enum@PxConvexFlag@physx@@G@physx@@QAE@XZ 100317f0 f i Cooking.obj
 0001:00030810       ??0?$PxFlags@W4Enum@PxHeightFieldFlag@physx@@G@physx@@QAE@ABV01@@Z 10031810 f i Cooking.obj
 0001:00030840       ??0?$ReflectionAllocator@VCooking@physx@@@shdfnd@physx@@QAE@PBD@Z 10031840 f i Cooking.obj
 0001:00030860       ??0?$ReflectionAllocator@VHeightField@Gu@physx@@@shdfnd@physx@@QAE@PBD@Z 10031860 f i Cooking.obj
 0001:00030880       ??0?$ReflectionAllocator@VTriangleMeshBuilder@physx@@@shdfnd@physx@@QAE@PBD@Z 10031880 f i Cooking.obj
 0001:000308a0       ??0Cooking@physx@@QAE@ABUPxCookingParams@1@@Z 100318a0 f i Cooking.obj
 0001:000308e0       ??0HullDesc@physx@@QAE@XZ  100318e0 f i Cooking.obj
 0001:00030960       ??0HullResult@physx@@QAE@XZ 10031960 f i Cooking.obj
 0001:000309c0       ??0PxConvexMeshDesc@physx@@QAE@ABV01@@Z 100319c0 f i Cooking.obj
 0001:00030a80       ??0PxCooking@physx@@QAE@XZ 10031a80 f i Cooking.obj
 0001:00030aa0       ??0PxCookingParams@physx@@QAE@ABU01@@Z 10031aa0 f i Cooking.obj
 0001:00030b70       ??0TriangleMeshBuilder@physx@@QAE@XZ 10031b70 f i Cooking.obj
 0001:00030bb0       ??1Cooking@physx@@UAE@XZ   10031bb0 f i Cooking.obj
 0001:00030bd0       ??1PxCooking@physx@@MAE@XZ 10031bd0 f i Cooking.obj
 0001:00030bf0       ??1TriangleMeshBuilder@physx@@UAE@XZ 10031bf0 f i Cooking.obj
 0001:00030c10       ??4?$PxFlags@W4Enum@PxMeshPreprocessingFlag@physx@@I@physx@@QAEAAV01@ABV01@@Z 10031c10 f i Cooking.obj
 0001:00030c30       ??4PxCookingParams@physx@@QAEAAU01@ABU01@@Z 10031c30 f i Cooking.obj
 0001:00030d00       ??9?$PxFlags@W4Enum@PxHeightFieldFlag@physx@@G@physx@@QBE_NABV01@@Z 10031d00 f i Cooking.obj
 0001:00030d40       ??I?$PxFlags@W4Enum@PxHeightFieldFlag@physx@@G@physx@@QBE?AV01@W4Enum@PxHeightFieldFlag@1@@Z 10031d40 f i Cooking.obj
 0001:00030d90       ??S?$PxFlags@W4Enum@PxConvexFlag@physx@@G@physx@@QBE?AV01@XZ 10031d90 f i Cooking.obj
 0001:00030dd0       ??Sphysx@@YA?AV?$PxFlags@W4Enum@PxConvexFlag@physx@@G@0@W4Enum@PxConvexFlag@0@@Z 10031dd0 f i Cooking.obj
 0001:00030e00       ??_4?$PxFlags@W4Enum@PxConvexFlag@physx@@G@physx@@QAEAAV01@ABV01@@Z 10031e00 f i Cooking.obj
 0001:00030e2d       ??_ETriangleMeshBuilder@physx@@W7AEPAXI@Z 10031e2d f i Cooking.obj
 0001:00030e40       ??_GCooking@physx@@UAEPAXI@Z 10031e40 f i Cooking.obj
 0001:00030e40       ??_ECooking@physx@@UAEPAXI@Z 10031e40 f i Cooking.obj
 0001:00030e80       ??_GPxCooking@physx@@MAEPAXI@Z 10031e80 f i Cooking.obj
 0001:00030e80       ??_EPxCooking@physx@@MAEPAXI@Z 10031e80 f i Cooking.obj
 0001:00030ec0       ??_GTriangleMeshBuilder@physx@@UAEPAXI@Z 10031ec0 f i Cooking.obj
 0001:00030ec0       ??_ETriangleMeshBuilder@physx@@UAEPAXI@Z 10031ec0 f i Cooking.obj
 0001:00030f00       ?allocate@?$ReflectionAllocator@VCooking@physx@@@shdfnd@physx@@QAEPAXIPBDH@Z 10031f00 f i Cooking.obj
 0001:00030f60       ?allocate@?$ReflectionAllocator@VHeightField@Gu@physx@@@shdfnd@physx@@QAEPAXIPBDH@Z 10031f60 f i Cooking.obj
 0001:00030fc0       ?allocate@?$ReflectionAllocator@VTriangleMeshBuilder@physx@@@shdfnd@physx@@QAEPAXIPBDH@Z 10031fc0 f i Cooking.obj
 0001:00031020       ?getName@?$ReflectionAllocator@VCooking@physx@@@shdfnd@physx@@CAPBDXZ 10032020 f i Cooking.obj
 0001:00031070       ?getName@?$ReflectionAllocator@VHeightField@Gu@physx@@@shdfnd@physx@@CAPBDXZ 10032070 f i Cooking.obj
 0001:000310c0       ?getName@?$ReflectionAllocator@VTriangleMeshBuilder@physx@@@shdfnd@physx@@CAPBDXZ 100320c0 f i Cooking.obj
 0001:00031110       ?isValid@PxHeightFieldDesc@physx@@QBE_NXZ 10032110 f i Cooking.obj
 0001:00031200       ?littleEndian@shdfnd@physx@@YADXZ 10032200 f i Cooking.obj
 0001:00031220       ?requires@TriangleMesh@Gu@physx@@UAEXAAVPxProcessPxBaseCallback@3@@Z 10032220 f i Cooking.obj
 0001:00031230       ??0ReducedVertexCloud@physx@@QAE@PBVPxVec3@1@I@Z 10032230 f   CookingUtils.obj
 0001:00031270       ??1ReducedVertexCloud@physx@@QAE@XZ 10032270 f   CookingUtils.obj
 0001:00031290       ?Clean@ReducedVertexCloud@physx@@QAEAAV12@XZ 10032290 f   CookingUtils.obj
 0001:000312f0       ?Reduce@ReducedVertexCloud@physx@@QAE_NPAUREDUCEDCLOUD@2@@Z 100322f0 f   CookingUtils.obj
 0001:000316f0       ??0EdgeList@Gu@physx@@QAE@XZ 100326f0 f   EdgeList.obj
 0001:00031730       ??1EdgeList@Gu@physx@@QAE@XZ 10032730 f   EdgeList.obj
 0001:000317d0       ?Load@EdgeList@Gu@physx@@QAE_NAAVPxInputStream@3@@Z 100327d0 f   EdgeList.obj
 0001:000319a0       ??0EdgeListBuilder@Gu@physx@@QAE@XZ 100329a0 f   EdgeList.obj
 0001:000319c0       ??1EdgeListBuilder@Gu@physx@@QAE@XZ 100329c0 f   EdgeList.obj
 0001:000319e0       ?Init@EdgeListBuilder@Gu@physx@@QAE_NABUEDGELISTCREATE@23@@Z 100329e0 f   EdgeList.obj
 0001:00031b60       ?CreateFacesToEdges@EdgeListBuilder@Gu@physx@@AAE_NIPBIPBG@Z 10032b60 f   EdgeList.obj
 0001:00032050       ?CreateEdgesToFaces@EdgeListBuilder@Gu@physx@@AAE_NIPBIPBG@Z 10033050 f   EdgeList.obj
 0001:00032460       ?ComputeActiveEdges@EdgeListBuilder@Gu@physx@@AAE_NIPBIPBGPBVPxVec3@3@M@Z 10033460 f   EdgeList.obj
 0001:00033eb0       ??$?_UUEdgeData@Gu@physx@@@@YAPAXIV?$ReflectionAllocator@UEdgeData@Gu@physx@@@shdfnd@physx@@PBDH@Z 10034eb0 f i EdgeList.obj
 0001:00033ed0       ??$?_UUEdgeTriangleData@Gu@physx@@@@YAPAXIV?$ReflectionAllocator@UEdgeTriangleData@Gu@physx@@@shdfnd@physx@@PBDH@Z 10034ed0 f i EdgeList.obj
 0001:00033ef0       ??0?$ReflectionAllocator@UEdgeData@Gu@physx@@@shdfnd@physx@@QAE@PBD@Z 10034ef0 f i EdgeList.obj
 0001:00033f10       ??0?$ReflectionAllocator@UEdgeTriangleData@Gu@physx@@@shdfnd@physx@@QAE@PBD@Z 10034f10 f i EdgeList.obj
 0001:00033f30       ??0PxTriangle@physx@@QAE@ABVPxVec3@1@00@Z 10034f30 f i EdgeList.obj
 0001:00033fb0       ??1PxTriangle@physx@@QAE@XZ 10034fb0 f i EdgeList.obj
 0001:00033fc0       ?GetEdgeToTriangles@EdgeList@Gu@physx@@QBEPBUEdgeDescData@23@XZ 10034fc0 f i EdgeList.obj
 0001:00033fe0       ?GetEdges@EdgeList@Gu@physx@@QBEPBUEdgeData@23@XZ 10034fe0 f i EdgeList.obj
 0001:00034000       ?GetFacesByEdges@EdgeList@Gu@physx@@QBEPBIXZ 10035000 f i EdgeList.obj
 0001:00034020       ?OppositeVertex@@YAIIIIII@Z 10035020 f i EdgeList.obj
 0001:000340c0       ?PxAtan2@physx@@YAMMM@Z    100350c0 f i EdgeList.obj
 0001:000340f0       ?allocate@?$ReflectionAllocator@UEdgeData@Gu@physx@@@shdfnd@physx@@QAEPAXIPBDH@Z 100350f0 f i EdgeList.obj
 0001:00034150       ?allocate@?$ReflectionAllocator@UEdgeTriangleData@Gu@physx@@@shdfnd@physx@@QAEPAXIPBDH@Z 10035150 f i EdgeList.obj
 0001:000341b0       ?angle@shdfnd@physx@@YAMABVPxVec3@2@0@Z 100351b0 f i EdgeList.obj
 0001:00034220       ?getName@?$ReflectionAllocator@UEdgeData@Gu@physx@@@shdfnd@physx@@CAPBDXZ 10035220 f i EdgeList.obj
 0001:00034270       ?getName@?$ReflectionAllocator@UEdgeTriangleData@Gu@physx@@@shdfnd@physx@@CAPBDXZ 10035270 f i EdgeList.obj
 0001:000342c0       ?normal@PxTriangle@physx@@QBEXAAVPxVec3@2@@Z 100352c0 f i EdgeList.obj
 0001:00034350       _atan2f                    10035350 f i EdgeList.obj
 0001:00034390       ??0InternalTriangleMeshBuilder@physx@@QAE@PAVInternalTriangleMesh@1@ABUPxCookingParams@1@@Z 10035390 f   InternalTriangleMeshBuilder.obj
 0001:000343c0       ??1InternalTriangleMeshBuilder@physx@@QAE@XZ 100353c0 f   InternalTriangleMeshBuilder.obj
 0001:000343e0       ?cleanMesh@InternalTriangleMeshBuilder@physx@@QAE_N_N@Z 100353e0 f   InternalTriangleMeshBuilder.obj
 0001:00034960       ?fillRemapTable@InternalTriangleMeshBuilder@physx@@QAEXXZ 10035960 f   InternalTriangleMeshBuilder.obj
 0001:00034a30       ?remapTopology@InternalTriangleMeshBuilder@physx@@QAEXPBI@Z 10035a30 f   InternalTriangleMeshBuilder.obj
 0001:00034d00       ?createRTree@InternalTriangleMeshBuilder@physx@@QAE_NXZ 10035d00 f   InternalTriangleMeshBuilder.obj
 0001:00034e60       ?createSharedEdgeData@InternalTriangleMeshBuilder@physx@@QAEX_N0@Z 10035e60 f   InternalTriangleMeshBuilder.obj
 0001:000354d0       ?releaseEdgeList@InternalTriangleMeshBuilder@physx@@AAEXXZ 100364d0 f   InternalTriangleMeshBuilder.obj
 0001:00035520       ?createEdgeList@InternalTriangleMeshBuilder@physx@@AAEXXZ 10036520 f   InternalTriangleMeshBuilder.obj
 0001:00035ae0       ??$?2V?$ReflectionAllocator@VEdgeListBuilder@Gu@physx@@@shdfnd@physx@@@UserAllocated@shdfnd@physx@@SAPAXIV?$ReflectionAllocator@VEdgeListBuilder@Gu@physx@@@12@PBDH@Z 10036ae0 f i InternalTriangleMeshBuilder.obj
 0001:00035b00       ??$PX_UNUSED@U?$TriangleT@I@Gu@physx@@@@YAXABU?$TriangleT@I@Gu@physx@@@Z 10036b00 f i InternalTriangleMeshBuilder.obj
 0001:00035b10       ??0?$Array@IVNamedAllocator@shdfnd@physx@@@shdfnd@physx@@QAE@ABVNamedAllocator@12@@Z 10036b10 f i InternalTriangleMeshBuilder.obj
 0001:00035b60       ??0?$ReflectionAllocator@VEdgeListBuilder@Gu@physx@@@shdfnd@physx@@QAE@PBD@Z 10036b60 f i InternalTriangleMeshBuilder.obj
 0001:00035b80       ??0RTreeCookerRemap@@QAE@I@Z 10036b80 f i InternalTriangleMeshBuilder.obj
 0001:00035bc0       ??0RemapCallback@RTreeCooker@physx@@QAE@XZ 10036bc0 f i InternalTriangleMeshBuilder.obj
 0001:00035be0       ??1RTreeCookerRemap@@UAE@XZ 10036be0 f i InternalTriangleMeshBuilder.obj
 0001:00035c00       ??1RemapCallback@RTreeCooker@physx@@UAE@XZ 10036c00 f i InternalTriangleMeshBuilder.obj
 0001:00035c20       ??_GEdgeListBuilder@Gu@physx@@QAEPAXI@Z 10036c20 f i InternalTriangleMeshBuilder.obj
 0001:00035c60       ??_ERTreeCookerRemap@@UAEPAXI@Z 10036c60 f i InternalTriangleMeshBuilder.obj
 0001:00035c60       ??_GRTreeCookerRemap@@UAEPAXI@Z 10036c60 f i InternalTriangleMeshBuilder.obj
 0001:00035ca0       ??_GRemapCallback@RTreeCooker@physx@@UAEPAXI@Z 10036ca0 f i InternalTriangleMeshBuilder.obj
 0001:00035ca0       ??_ERemapCallback@RTreeCooker@physx@@UAEPAXI@Z 10036ca0 f i InternalTriangleMeshBuilder.obj
 0001:00035ce0       ?GetNbFaces@EdgeList@Gu@physx@@QBEIXZ 10036ce0 f i InternalTriangleMeshBuilder.obj
 0001:00035d00       ?LeafSetData@Gu@physx@@YAIII@Z 10036d00 f i InternalTriangleMeshBuilder.obj
 0001:00035dd0       ?SetData@LeafTriangles@Gu@physx@@QAEXII@Z 10036dd0 f i InternalTriangleMeshBuilder.obj
 0001:00035e00       ?allocate@?$ReflectionAllocator@VEdgeListBuilder@Gu@physx@@@shdfnd@physx@@QAEPAXIPBDH@Z 10036e00 f i InternalTriangleMeshBuilder.obj
 0001:00035e60       ?findEdgeCCW@?$TriangleT@I@Gu@physx@@QBEEII@Z 10036e60 f i InternalTriangleMeshBuilder.obj
 0001:00035fd0       ?getName@?$ReflectionAllocator@VEdgeListBuilder@Gu@physx@@@shdfnd@physx@@CAPBDXZ 10036fd0 f i InternalTriangleMeshBuilder.obj
 0001:00036020       ?remap@RTreeCookerRemap@@UAEXPAIII@Z 10037020 f i InternalTriangleMeshBuilder.obj
 0001:000361c0       ??0MeshCleaner@physx@@QAE@IPBVPxVec3@1@IPBIM@Z 100371c0 f   MeshCleaner.obj
 0001:00036a30       ??1MeshCleaner@physx@@QAE@XZ 10037a30 f   MeshCleaner.obj
 0001:00036f10       ??9Indices@@QBE_NABU0@@Z   10037f10 f i MeshCleaner.obj
 0001:00036fb0       ??9PxVec3@physx@@QBE_NABV01@@Z 10037fb0 f i MeshCleaner.obj
 0001:00037030       ?PxFloor@physx@@YAMM@Z     10038030 f i MeshCleaner.obj
 0001:00037050       ?nextPowerOfTwo@shdfnd@physx@@YAII@Z 10038050 f i MeshCleaner.obj
 0001:000370b0       _floorf                    100380b0 f i MeshCleaner.obj
 0001:000370de       _GetModuleFileNameA@12     100380de f   kernel32:KERNEL32.dll
 0001:000370e4       _LoadLibraryA@4            100380e4 f   kernel32:KERNEL32.dll
 0001:000370ea       __imp_load_?writeWord@physx@@YAXG_NAAVPxOutputStream@1@@Z 100380ea f   PhysX3CommonDEBUG_x86:PhysX3CommonDEBUG_x86.dll
 0001:000370f4       __tailMerge_PhysX3CommonDEBUG_x86_dll 100380f4 f i PhysX3CommonDEBUG_x86:PhysX3CommonDEBUG_x86.dll
 0001:00037105       ?writeWord@physx@@YAXG_NAAVPxOutputStream@1@@Z 10038105 f   PhysX3CommonDEBUG_x86:PhysX3CommonDEBUG_x86.dll
 0001:0003710b       __imp_load_?writeDword@physx@@YAXI_NAAVPxOutputStream@1@@Z 1003810b f   PhysX3CommonDEBUG_x86:PhysX3CommonDEBUG_x86.dll
 0001:00037115       ?writeDword@physx@@YAXI_NAAVPxOutputStream@1@@Z 10038115 f   PhysX3CommonDEBUG_x86:PhysX3CommonDEBUG_x86.dll
 0001:0003711b       __imp_load_?writeFloat@physx@@YAXM_NAAVPxOutputStream@1@@Z 1003811b f   PhysX3CommonDEBUG_x86:PhysX3CommonDEBUG_x86.dll
 0001:00037125       ?writeFloat@physx@@YAXM_NAAVPxOutputStream@1@@Z 10038125 f   PhysX3CommonDEBUG_x86:PhysX3CommonDEBUG_x86.dll
 0001:0003712b       __imp_load_?writeHeader@physx@@YA_NCCCCI_NAAVPxOutputStream@1@@Z 1003812b f   PhysX3CommonDEBUG_x86:PhysX3CommonDEBUG_x86.dll
 0001:00037135       ?writeHeader@physx@@YA_NCCCCI_NAAVPxOutputStream@1@@Z 10038135 f   PhysX3CommonDEBUG_x86:PhysX3CommonDEBUG_x86.dll
 0001:0003713b       __imp_load_??0Allocator@shdfnd@physx@@QAE@PBD@Z 1003813b f   PhysX3CommonDEBUG_x86:PhysX3CommonDEBUG_x86.dll
 0001:00037145       ??0Allocator@shdfnd@physx@@QAE@PBD@Z 10038145 f   PhysX3CommonDEBUG_x86:PhysX3CommonDEBUG_x86.dll
 0001:0003714b       __imp_load_?allocate@Allocator@shdfnd@physx@@QAEPAXIPBDH@Z 1003814b f   PhysX3CommonDEBUG_x86:PhysX3CommonDEBUG_x86.dll
 0001:00037155       ?allocate@Allocator@shdfnd@physx@@QAEPAXIPBDH@Z 10038155 f   PhysX3CommonDEBUG_x86:PhysX3CommonDEBUG_x86.dll
 0001:0003715b       __imp_load_??0NamedAllocator@shdfnd@physx@@QAE@PBD@Z 1003815b f   PhysX3CommonDEBUG_x86:PhysX3CommonDEBUG_x86.dll
 0001:00037165       ??0NamedAllocator@shdfnd@physx@@QAE@PBD@Z 10038165 f   PhysX3CommonDEBUG_x86:PhysX3CommonDEBUG_x86.dll
 0001:0003716b       __imp_load_??0NamedAllocator@shdfnd@physx@@QAE@ABV012@@Z 1003816b f   PhysX3CommonDEBUG_x86:PhysX3CommonDEBUG_x86.dll
 0001:00037175       ??0NamedAllocator@shdfnd@physx@@QAE@ABV012@@Z 10038175 f   PhysX3CommonDEBUG_x86:PhysX3CommonDEBUG_x86.dll
 0001:0003717b       __imp_load_??1NamedAllocator@shdfnd@physx@@QAE@XZ 1003817b f   PhysX3CommonDEBUG_x86:PhysX3CommonDEBUG_x86.dll
 0001:00037185       ??1NamedAllocator@shdfnd@physx@@QAE@XZ 10038185 f   PhysX3CommonDEBUG_x86:PhysX3CommonDEBUG_x86.dll
 0001:0003718b       __imp_load_?allocate@NamedAllocator@shdfnd@physx@@QAEPAXIPBDH@Z 1003818b f   PhysX3CommonDEBUG_x86:PhysX3CommonDEBUG_x86.dll
 0001:00037195       ?allocate@NamedAllocator@shdfnd@physx@@QAEPAXIPBDH@Z 10038195 f   PhysX3CommonDEBUG_x86:PhysX3CommonDEBUG_x86.dll
 0001:0003719b       __imp_load_?deallocate@NamedAllocator@shdfnd@physx@@QAEXPAX@Z 1003819b f   PhysX3CommonDEBUG_x86:PhysX3CommonDEBUG_x86.dll
 0001:000371a5       ?deallocate@NamedAllocator@shdfnd@physx@@QAEXPAX@Z 100381a5 f   PhysX3CommonDEBUG_x86:PhysX3CommonDEBUG_x86.dll
 0001:000371ab       __imp_load_?PxGetAssertHandler@physx@@YAAAVPxAssertHandler@1@XZ 100381ab f   PhysX3CommonDEBUG_x86:PhysX3CommonDEBUG_x86.dll
 0001:000371b5       ?PxGetAssertHandler@physx@@YAAAVPxAssertHandler@1@XZ 100381b5 f   PhysX3CommonDEBUG_x86:PhysX3CommonDEBUG_x86.dll
 0001:000371bb       __imp_load_?validate@RTree@Gu@physx@@QAEXXZ 100381bb f   PhysX3CommonDEBUG_x86:PhysX3CommonDEBUG_x86.dll
 0001:000371c5       ?validate@RTree@Gu@physx@@QAEXXZ 100381c5 f   PhysX3CommonDEBUG_x86:PhysX3CommonDEBUG_x86.dll
 0001:000371cb       __imp_load_??0TempAllocator@shdfnd@physx@@QAE@PBD@Z 100381cb f   PhysX3CommonDEBUG_x86:PhysX3CommonDEBUG_x86.dll
 0001:000371d5       ??0TempAllocator@shdfnd@physx@@QAE@PBD@Z 100381d5 f   PhysX3CommonDEBUG_x86:PhysX3CommonDEBUG_x86.dll
 0001:000371db       __imp_load_?allocate@TempAllocator@shdfnd@physx@@QAEPAXIPBDH@Z 100381db f   PhysX3CommonDEBUG_x86:PhysX3CommonDEBUG_x86.dll
 0001:000371e5       ?allocate@TempAllocator@shdfnd@physx@@QAEPAXIPBDH@Z 100381e5 f   PhysX3CommonDEBUG_x86:PhysX3CommonDEBUG_x86.dll
 0001:000371eb       __imp_load_?deallocate@TempAllocator@shdfnd@physx@@QAEXPAX@Z 100381eb f   PhysX3CommonDEBUG_x86:PhysX3CommonDEBUG_x86.dll
 0001:000371f5       ?deallocate@TempAllocator@shdfnd@physx@@QAEXPAX@Z 100381f5 f   PhysX3CommonDEBUG_x86:PhysX3CommonDEBUG_x86.dll
 0001:000371fb       __imp_load_?computeBoundsAroundVertices@Gu@physx@@YAXAAVPxBounds3@2@IPIBVPxVec3@2@@Z 100381fb f   PhysX3CommonDEBUG_x86:PhysX3CommonDEBUG_x86.dll
 0001:00037205       ?computeBoundsAroundVertices@Gu@physx@@YAXAAVPxBounds3@2@IPIBVPxVec3@2@@Z 10038205 f   PhysX3CommonDEBUG_x86:PhysX3CommonDEBUG_x86.dll
 0001:0003720b       __imp_load__PxGetFoundation 1003820b f   PhysX3CommonDEBUG_x86:PhysX3CommonDEBUG_x86.dll
 0001:00037215       _PxGetFoundation           10038215 f   PhysX3CommonDEBUG_x86:PhysX3CommonDEBUG_x86.dll
 0001:0003721b       __imp_load_?getAllocator@shdfnd@physx@@YAAAVPxAllocatorCallback@2@XZ 1003821b f   PhysX3CommonDEBUG_x86:PhysX3CommonDEBUG_x86.dll
 0001:00037225       ?getAllocator@shdfnd@physx@@YAAAVPxAllocatorCallback@2@XZ 10038225 f   PhysX3CommonDEBUG_x86:PhysX3CommonDEBUG_x86.dll
 0001:0003722b       __imp_load_?deallocate@Allocator@shdfnd@physx@@QAEXPAX@Z 1003822b f   PhysX3CommonDEBUG_x86:PhysX3CommonDEBUG_x86.dll
 0001:00037235       ?deallocate@Allocator@shdfnd@physx@@QAEXPAX@Z 10038235 f   PhysX3CommonDEBUG_x86:PhysX3CommonDEBUG_x86.dll
 0001:0003723b       __imp_load_?getInstance@Foundation@shdfnd@physx@@SAAAV123@XZ 1003823b f   PhysX3CommonDEBUG_x86:PhysX3CommonDEBUG_x86.dll
 0001:00037245       ?getInstance@Foundation@shdfnd@physx@@SAAAV123@XZ 10038245 f   PhysX3CommonDEBUG_x86:PhysX3CommonDEBUG_x86.dll
 0001:0003724b       __imp_load_?error@Foundation@shdfnd@physx@@QAAXW4Enum@PxErrorCode@3@PBDH1ZZ 1003824b f   PhysX3CommonDEBUG_x86:PhysX3CommonDEBUG_x86.dll
 0001:00037255       ?error@Foundation@shdfnd@physx@@QAAXW4Enum@PxErrorCode@3@PBDH1ZZ 10038255 f   PhysX3CommonDEBUG_x86:PhysX3CommonDEBUG_x86.dll
 0001:0003725b       __imp_load_?save@RTree@Gu@physx@@QBE_NAAVPxOutputStream@3@@Z 1003825b f   PhysX3CommonDEBUG_x86:PhysX3CommonDEBUG_x86.dll
 0001:00037265       ?save@RTree@Gu@physx@@QBE_NAAVPxOutputStream@3@@Z 10038265 f   PhysX3CommonDEBUG_x86:PhysX3CommonDEBUG_x86.dll
 0001:0003726b       __imp_load_?release@InternalTriangleMesh@physx@@QAEXXZ 1003826b f   PhysX3CommonDEBUG_x86:PhysX3CommonDEBUG_x86.dll
 0001:00037275       ?release@InternalTriangleMesh@physx@@QAEXXZ 10038275 f   PhysX3CommonDEBUG_x86:PhysX3CommonDEBUG_x86.dll
 0001:0003727b       __imp_load_?allocateVertices@InternalTriangleMesh@physx@@QAEPAVPxVec3@2@I@Z 1003827b f   PhysX3CommonDEBUG_x86:PhysX3CommonDEBUG_x86.dll
 0001:00037285       ?allocateVertices@InternalTriangleMesh@physx@@QAEPAVPxVec3@2@I@Z 10038285 f   PhysX3CommonDEBUG_x86:PhysX3CommonDEBUG_x86.dll
 0001:0003728b       __imp_load_?allocateTriangles@InternalTriangleMesh@physx@@QAEPAXI_N@Z 1003828b f   PhysX3CommonDEBUG_x86:PhysX3CommonDEBUG_x86.dll
 0001:00037295       ?allocateTriangles@InternalTriangleMesh@physx@@QAEPAXI_N@Z 10038295 f   PhysX3CommonDEBUG_x86:PhysX3CommonDEBUG_x86.dll
 0001:0003729b       __imp_load_?allocateMaterials@InternalTriangleMesh@physx@@QAEPAGXZ 1003829b f   PhysX3CommonDEBUG_x86:PhysX3CommonDEBUG_x86.dll
 0001:000372a5       ?allocateMaterials@InternalTriangleMesh@physx@@QAEPAGXZ 100382a5 f   PhysX3CommonDEBUG_x86:PhysX3CommonDEBUG_x86.dll
 0001:000372ab       __imp_load_?getNumVertices@InternalTriangleMesh@physx@@QBEIXZ 100382ab f   PhysX3CommonDEBUG_x86:PhysX3CommonDEBUG_x86.dll
 0001:000372b5       ?getNumVertices@InternalTriangleMesh@physx@@QBEIXZ 100382b5 f   PhysX3CommonDEBUG_x86:PhysX3CommonDEBUG_x86.dll
 0001:000372bb       __imp_load_?getNumTriangles@InternalTriangleMesh@physx@@QBEIXZ 100382bb f   PhysX3CommonDEBUG_x86:PhysX3CommonDEBUG_x86.dll
 0001:000372c5       ?getNumTriangles@InternalTriangleMesh@physx@@QBEIXZ 100382c5 f   PhysX3CommonDEBUG_x86:PhysX3CommonDEBUG_x86.dll
 0001:000372cb       __imp_load_?getVertices@InternalTriangleMesh@physx@@QBEPBVPxVec3@2@XZ 100382cb f   PhysX3CommonDEBUG_x86:PhysX3CommonDEBUG_x86.dll
 0001:000372d5       ?getVertices@InternalTriangleMesh@physx@@QBEPBVPxVec3@2@XZ 100382d5 f   PhysX3CommonDEBUG_x86:PhysX3CommonDEBUG_x86.dll
 0001:000372db       __imp_load_?getTriangles@InternalTriangleMesh@physx@@QBEPBXXZ 100382db f   PhysX3CommonDEBUG_x86:PhysX3CommonDEBUG_x86.dll
 0001:000372e5       ?getTriangles@InternalTriangleMesh@physx@@QBEPBXXZ 100382e5 f   PhysX3CommonDEBUG_x86:PhysX3CommonDEBUG_x86.dll
 0001:000372eb       __imp_load_?getMaterials@InternalTriangleMesh@physx@@QBEPBGXZ 100382eb f   PhysX3CommonDEBUG_x86:PhysX3CommonDEBUG_x86.dll
 0001:000372f5       ?getMaterials@InternalTriangleMesh@physx@@QBEPBGXZ 100382f5 f   PhysX3CommonDEBUG_x86:PhysX3CommonDEBUG_x86.dll
 0001:000372fb       __imp_load_?getFaceRemap@InternalTriangleMesh@physx@@QBEPBIXZ 100382fb f   PhysX3CommonDEBUG_x86:PhysX3CommonDEBUG_x86.dll
 0001:00037305       ?getFaceRemap@InternalTriangleMesh@physx@@QBEPBIXZ 10038305 f   PhysX3CommonDEBUG_x86:PhysX3CommonDEBUG_x86.dll
 0001:0003730b       __imp_load_?getAdjacencies@InternalTriangleMesh@physx@@QBEPBIXZ 1003830b f   PhysX3CommonDEBUG_x86:PhysX3CommonDEBUG_x86.dll
 0001:00037315       ?getAdjacencies@InternalTriangleMesh@physx@@QBEPBIXZ 10038315 f   PhysX3CommonDEBUG_x86:PhysX3CommonDEBUG_x86.dll
 0001:0003731b       __imp_load_?getCollisionModel@InternalTriangleMesh@physx@@QBEABVRTreeMidphase@Gu@2@XZ 1003831b f   PhysX3CommonDEBUG_x86:PhysX3CommonDEBUG_x86.dll
 0001:00037325       ?getCollisionModel@InternalTriangleMesh@physx@@QBEABVRTreeMidphase@Gu@2@XZ 10038325 f   PhysX3CommonDEBUG_x86:PhysX3CommonDEBUG_x86.dll
 0001:0003732b       __imp_load_?writeWordBuffer@physx@@YAXPBGI_NAAVPxOutputStream@1@@Z 1003832b f   PhysX3CommonDEBUG_x86:PhysX3CommonDEBUG_x86.dll
 0001:00037335       ?writeWordBuffer@physx@@YAXPBGI_NAAVPxOutputStream@1@@Z 10038335 f   PhysX3CommonDEBUG_x86:PhysX3CommonDEBUG_x86.dll
 0001:0003733b       __imp_load_?writeFloatBuffer@physx@@YAXPBMI_NAAVPxOutputStream@1@@Z 1003833b f   PhysX3CommonDEBUG_x86:PhysX3CommonDEBUG_x86.dll
 0001:00037345       ?writeFloatBuffer@physx@@YAXPBMI_NAAVPxOutputStream@1@@Z 10038345 f   PhysX3CommonDEBUG_x86:PhysX3CommonDEBUG_x86.dll
 0001:0003734b       __imp_load_?computeMaxIndex@physx@@YAIPBII@Z 1003834b f   PhysX3CommonDEBUG_x86:PhysX3CommonDEBUG_x86.dll
 0001:00037355       ?computeMaxIndex@physx@@YAIPBII@Z 10038355 f   PhysX3CommonDEBUG_x86:PhysX3CommonDEBUG_x86.dll
 0001:0003735b       __imp_load_?storeIndices@physx@@YAXIIPBIAAVPxOutputStream@1@_N@Z 1003835b f   PhysX3CommonDEBUG_x86:PhysX3CommonDEBUG_x86.dll
 0001:00037365       ?storeIndices@physx@@YAXIIPBIAAVPxOutputStream@1@_N@Z 10038365 f   PhysX3CommonDEBUG_x86:PhysX3CommonDEBUG_x86.dll
 0001:0003736b       __imp_load_?computeMaxIndex@physx@@YAGPBGI@Z 1003836b f   PhysX3CommonDEBUG_x86:PhysX3CommonDEBUG_x86.dll
 0001:00037375       ?computeMaxIndex@physx@@YAGPBGI@Z 10038375 f   PhysX3CommonDEBUG_x86:PhysX3CommonDEBUG_x86.dll
 0001:0003737b       __imp_load_?WriteHeader@Gu@physx@@YA_NEEEEI_NAAVPxOutputStream@2@@Z 1003837b f   PhysX3CommonDEBUG_x86:PhysX3CommonDEBUG_x86.dll
 0001:00037385       ?WriteHeader@Gu@physx@@YA_NEEEEI_NAAVPxOutputStream@2@@Z 10038385 f   PhysX3CommonDEBUG_x86:PhysX3CommonDEBUG_x86.dll
 0001:0003738b       __imp_load_?StoreIndices@Gu@physx@@YAXGIPBGAAVPxOutputStream@2@_N@Z 1003838b f   PhysX3CommonDEBUG_x86:PhysX3CommonDEBUG_x86.dll
 0001:00037395       ?StoreIndices@Gu@physx@@YAXGIPBGAAVPxOutputStream@2@_N@Z 10038395 f   PhysX3CommonDEBUG_x86:PhysX3CommonDEBUG_x86.dll
 0001:0003739b       __imp_load_?CreateOffsets@BigConvexData@physx@@IAEXXZ 1003839b f   PhysX3CommonDEBUG_x86:PhysX3CommonDEBUG_x86.dll
 0001:000373a5       ?CreateOffsets@BigConvexData@physx@@IAEXXZ 100383a5 f   PhysX3CommonDEBUG_x86:PhysX3CommonDEBUG_x86.dll
 0001:000373ab       __imp_load_?GetRanks@RadixSort@Gu@physx@@QBEPBIXZ 100383ab f   PhysX3CommonDEBUG_x86:PhysX3CommonDEBUG_x86.dll
 0001:000373b5       ?GetRanks@RadixSort@Gu@physx@@QBEPBIXZ 100383b5 f   PhysX3CommonDEBUG_x86:PhysX3CommonDEBUG_x86.dll
 0001:000373bb       __imp_load_??0RadixSortBuffered@Gu@physx@@QAE@XZ 100383bb f   PhysX3CommonDEBUG_x86:PhysX3CommonDEBUG_x86.dll
 0001:000373c5       ??0RadixSortBuffered@Gu@physx@@QAE@XZ 100383c5 f   PhysX3CommonDEBUG_x86:PhysX3CommonDEBUG_x86.dll
 0001:000373cb       __imp_load_??1RadixSortBuffered@Gu@physx@@UAE@XZ 100383cb f   PhysX3CommonDEBUG_x86:PhysX3CommonDEBUG_x86.dll
 0001:000373d5       ??1RadixSortBuffered@Gu@physx@@UAE@XZ 100383d5 f   PhysX3CommonDEBUG_x86:PhysX3CommonDEBUG_x86.dll
 0001:000373db       __imp_load_?Sort@RadixSortBuffered@Gu@physx@@QAEAAV123@PBIIW4RadixHint@23@@Z 100383db f   PhysX3CommonDEBUG_x86:PhysX3CommonDEBUG_x86.dll
 0001:000373e5       ?Sort@RadixSortBuffered@Gu@physx@@QAEAAV123@PBIIW4RadixHint@23@@Z 100383e5 f   PhysX3CommonDEBUG_x86:PhysX3CommonDEBUG_x86.dll
 0001:000373eb       __imp_load_??0Container@Gu@physx@@QAE@XZ 100383eb f   PhysX3CommonDEBUG_x86:PhysX3CommonDEBUG_x86.dll
 0001:000373f5       ??0Container@Gu@physx@@QAE@XZ 100383f5 f   PhysX3CommonDEBUG_x86:PhysX3CommonDEBUG_x86.dll
 0001:000373fb       __imp_load_??0Container@Gu@physx@@QAE@ABV012@@Z 100383fb f   PhysX3CommonDEBUG_x86:PhysX3CommonDEBUG_x86.dll
 0001:00037405       ??0Container@Gu@physx@@QAE@ABV012@@Z 10038405 f   PhysX3CommonDEBUG_x86:PhysX3CommonDEBUG_x86.dll
 0001:0003740b       __imp_load_??1Container@Gu@physx@@QAE@XZ 1003840b f   PhysX3CommonDEBUG_x86:PhysX3CommonDEBUG_x86.dll
 0001:00037415       ??1Container@Gu@physx@@QAE@XZ 10038415 f   PhysX3CommonDEBUG_x86:PhysX3CommonDEBUG_x86.dll
 0001:0003741b       __imp_load_?Add@Container@Gu@physx@@QAEAAV123@I@Z 1003841b f   PhysX3CommonDEBUG_x86:PhysX3CommonDEBUG_x86.dll
 0001:00037425       ?Add@Container@Gu@physx@@QAEAAV123@I@Z 10038425 f   PhysX3CommonDEBUG_x86:PhysX3CommonDEBUG_x86.dll
 0001:0003742b       __imp_load_?Add@Container@Gu@physx@@QAEAAV123@PBII@Z 1003842b f   PhysX3CommonDEBUG_x86:PhysX3CommonDEBUG_x86.dll
 0001:00037435       ?Add@Container@Gu@physx@@QAEAAV123@PBII@Z 10038435 f   PhysX3CommonDEBUG_x86:PhysX3CommonDEBUG_x86.dll
 0001:0003743b       __imp_load_?Add@Container@Gu@physx@@QAEAAV123@ABV123@@Z 1003843b f   PhysX3CommonDEBUG_x86:PhysX3CommonDEBUG_x86.dll
 0001:00037445       ?Add@Container@Gu@physx@@QAEAAV123@ABV123@@Z 10038445 f   PhysX3CommonDEBUG_x86:PhysX3CommonDEBUG_x86.dll
 0001:0003744b       __imp_load_?AddUnique@Container@Gu@physx@@QAEAAV123@I@Z 1003844b f   PhysX3CommonDEBUG_x86:PhysX3CommonDEBUG_x86.dll
 0001:00037455       ?AddUnique@Container@Gu@physx@@QAEAAV123@I@Z 10038455 f   PhysX3CommonDEBUG_x86:PhysX3CommonDEBUG_x86.dll
 0001:0003745b       __imp_load_?Empty@Container@Gu@physx@@QAEAAV123@XZ 1003845b f   PhysX3CommonDEBUG_x86:PhysX3CommonDEBUG_x86.dll
 0001:00037465       ?Empty@Container@Gu@physx@@QAEAAV123@XZ 10038465 f   PhysX3CommonDEBUG_x86:PhysX3CommonDEBUG_x86.dll
 0001:0003746b       __imp_load_?Reset@Container@Gu@physx@@QAEXXZ 1003846b f   PhysX3CommonDEBUG_x86:PhysX3CommonDEBUG_x86.dll
 0001:00037475       ?Reset@Container@Gu@physx@@QAEXXZ 10038475 f   PhysX3CommonDEBUG_x86:PhysX3CommonDEBUG_x86.dll
 0001:0003747b       __imp_load_?Contains@Container@Gu@physx@@QBE_NIPAI@Z 1003847b f   PhysX3CommonDEBUG_x86:PhysX3CommonDEBUG_x86.dll
 0001:00037485       ?Contains@Container@Gu@physx@@QBE_NIPAI@Z 10038485 f   PhysX3CommonDEBUG_x86:PhysX3CommonDEBUG_x86.dll
 0001:0003748b       __imp_load_?DeleteIndex@Container@Gu@physx@@QAEXI@Z 1003848b f   PhysX3CommonDEBUG_x86:PhysX3CommonDEBUG_x86.dll
 0001:00037495       ?DeleteIndex@Container@Gu@physx@@QAEXI@Z 10038495 f   PhysX3CommonDEBUG_x86:PhysX3CommonDEBUG_x86.dll
 0001:0003749b       __imp_load_?GetNbEntries@Container@Gu@physx@@QBEIXZ 1003849b f   PhysX3CommonDEBUG_x86:PhysX3CommonDEBUG_x86.dll
 0001:000374a5       ?GetNbEntries@Container@Gu@physx@@QBEIXZ 100384a5 f   PhysX3CommonDEBUG_x86:PhysX3CommonDEBUG_x86.dll
 0001:000374ab       __imp_load_?GetEntry@Container@Gu@physx@@QBEII@Z 100384ab f   PhysX3CommonDEBUG_x86:PhysX3CommonDEBUG_x86.dll
 0001:000374b5       ?GetEntry@Container@Gu@physx@@QBEII@Z 100384b5 f   PhysX3CommonDEBUG_x86:PhysX3CommonDEBUG_x86.dll
 0001:000374bb       __imp_load_?GetEntries@Container@Gu@physx@@QBEPAIXZ 100384bb f   PhysX3CommonDEBUG_x86:PhysX3CommonDEBUG_x86.dll
 0001:000374c5       ?GetEntries@Container@Gu@physx@@QBEPAIXZ 100384c5 f   PhysX3CommonDEBUG_x86:PhysX3CommonDEBUG_x86.dll
 0001:000374cb       __imp_load_??AContainer@Gu@physx@@QAEAAII@Z 100384cb f   PhysX3CommonDEBUG_x86:PhysX3CommonDEBUG_x86.dll
 0001:000374d5       ??AContainer@Gu@physx@@QAEAAII@Z 100384d5 f   PhysX3CommonDEBUG_x86:PhysX3CommonDEBUG_x86.dll
 0001:000374db       __imp_load_??4Container@Gu@physx@@QAEXABV012@@Z 100384db f   PhysX3CommonDEBUG_x86:PhysX3CommonDEBUG_x86.dll
 0001:000374e5       ??4Container@Gu@physx@@QAEXABV012@@Z 100384e5 f   PhysX3CommonDEBUG_x86:PhysX3CommonDEBUG_x86.dll
 0001:000374eb       __imp_load_??0ConvexMesh@Gu@physx@@QAE@XZ 100384eb f   PhysX3CommonDEBUG_x86:PhysX3CommonDEBUG_x86.dll
 0001:000374f5       ??0ConvexMesh@Gu@physx@@QAE@XZ 100384f5 f   PhysX3CommonDEBUG_x86:PhysX3CommonDEBUG_x86.dll
 0001:000374fb       __imp_load_??1ConvexMesh@Gu@physx@@UAE@XZ 100384fb f   PhysX3CommonDEBUG_x86:PhysX3CommonDEBUG_x86.dll
 0001:00037505       ??1ConvexMesh@Gu@physx@@UAE@XZ 10038505 f   PhysX3CommonDEBUG_x86:PhysX3CommonDEBUG_x86.dll
 0001:0003750b       __imp_load_??0BigConvexData@physx@@QAE@XZ 1003850b f   PhysX3CommonDEBUG_x86:PhysX3CommonDEBUG_x86.dll
 0001:00037515       ??0BigConvexData@physx@@QAE@XZ 10038515 f   PhysX3CommonDEBUG_x86:PhysX3CommonDEBUG_x86.dll
 0001:0003751b       __imp_load_??1BigConvexData@physx@@QAE@XZ 1003851b f   PhysX3CommonDEBUG_x86:PhysX3CommonDEBUG_x86.dll
 0001:00037525       ??1BigConvexData@physx@@QAE@XZ 10038525 f   PhysX3CommonDEBUG_x86:PhysX3CommonDEBUG_x86.dll
 0001:0003752b       __imp_load_?exportExtraData@ConvexMesh@Gu@physx@@UAEXAAVPxSerializationContext@3@@Z 1003852b f   PhysX3CommonDEBUG_x86:PhysX3CommonDEBUG_x86.dll
 0001:00037535       ?exportExtraData@ConvexMesh@Gu@physx@@UAEXAAVPxSerializationContext@3@@Z 10038535 f   PhysX3CommonDEBUG_x86:PhysX3CommonDEBUG_x86.dll
 0001:0003753b       __imp_load_?getConcreteTypeName@PxConvexMesh@physx@@UBEPBDXZ 1003853b f   PhysX3CommonDEBUG_x86:PhysX3CommonDEBUG_x86.dll
 0001:00037545       ?getConcreteTypeName@PxConvexMesh@physx@@UBEPBDXZ 10038545 f   PhysX3CommonDEBUG_x86:PhysX3CommonDEBUG_x86.dll
 0001:0003754b       __imp_load_?getIndexBuffer@ConvexMesh@Gu@physx@@UBEPBEXZ 1003854b f   PhysX3CommonDEBUG_x86:PhysX3CommonDEBUG_x86.dll
 0001:00037555       ?getIndexBuffer@ConvexMesh@Gu@physx@@UBEPBEXZ 10038555 f   PhysX3CommonDEBUG_x86:PhysX3CommonDEBUG_x86.dll
 0001:0003755b       __imp_load_?getLocalBounds@ConvexMesh@Gu@physx@@UBE?AVPxBounds3@3@XZ 1003855b f   PhysX3CommonDEBUG_x86:PhysX3CommonDEBUG_x86.dll
 0001:00037565       ?getLocalBounds@ConvexMesh@Gu@physx@@UBE?AVPxBounds3@3@XZ 10038565 f   PhysX3CommonDEBUG_x86:PhysX3CommonDEBUG_x86.dll
 0001:0003756b       __imp_load_?getMassInformation@ConvexMesh@Gu@physx@@UBEXAAMAAVPxMat33@3@AAVPxVec3@3@@Z 1003856b f   PhysX3CommonDEBUG_x86:PhysX3CommonDEBUG_x86.dll
 0001:00037575       ?getMassInformation@ConvexMesh@Gu@physx@@UBEXAAMAAVPxMat33@3@AAVPxVec3@3@@Z 10038575 f   PhysX3CommonDEBUG_x86:PhysX3CommonDEBUG_x86.dll
 0001:0003757b       __imp_load_?getNbPolygons@ConvexMesh@Gu@physx@@UBEIXZ 1003857b f   PhysX3CommonDEBUG_x86:PhysX3CommonDEBUG_x86.dll
 0001:00037585       ?getNbPolygons@ConvexMesh@Gu@physx@@UBEIXZ 10038585 f   PhysX3CommonDEBUG_x86:PhysX3CommonDEBUG_x86.dll
 0001:0003758b       __imp_load_?getNbVertices@ConvexMesh@Gu@physx@@UBEIXZ 1003858b f   PhysX3CommonDEBUG_x86:PhysX3CommonDEBUG_x86.dll
 0001:00037595       ?getNbVertices@ConvexMesh@Gu@physx@@UBEIXZ 10038595 f   PhysX3CommonDEBUG_x86:PhysX3CommonDEBUG_x86.dll
 0001:0003759b       __imp_load_?getPolygonData@ConvexMesh@Gu@physx@@UBE_NIAAUPxHullPolygon@3@@Z 1003859b f   PhysX3CommonDEBUG_x86:PhysX3CommonDEBUG_x86.dll
 0001:000375a5       ?getPolygonData@ConvexMesh@Gu@physx@@UBE_NIAAUPxHullPolygon@3@@Z 100385a5 f   PhysX3CommonDEBUG_x86:PhysX3CommonDEBUG_x86.dll
 0001:000375ab       __imp_load_?getReferenceCount@ConvexMesh@Gu@physx@@UBEIXZ 100385ab f   PhysX3CommonDEBUG_x86:PhysX3CommonDEBUG_x86.dll
 0001:000375b5       ?getReferenceCount@ConvexMesh@Gu@physx@@UBEIXZ 100385b5 f   PhysX3CommonDEBUG_x86:PhysX3CommonDEBUG_x86.dll
 0001:000375bb       __imp_load_?getVertices@ConvexMesh@Gu@physx@@UBEPBVPxVec3@3@XZ 100385bb f   PhysX3CommonDEBUG_x86:PhysX3CommonDEBUG_x86.dll
 0001:000375c5       ?getVertices@ConvexMesh@Gu@physx@@UBEPBVPxVec3@3@XZ 100385c5 f   PhysX3CommonDEBUG_x86:PhysX3CommonDEBUG_x86.dll
 0001:000375cb       __imp_load_?isKindOf@PxConvexMesh@physx@@MBE_NPBD@Z 100385cb f   PhysX3CommonDEBUG_x86:PhysX3CommonDEBUG_x86.dll
 0001:000375d5       ?isKindOf@PxConvexMesh@physx@@MBE_NPBD@Z 100385d5 f   PhysX3CommonDEBUG_x86:PhysX3CommonDEBUG_x86.dll
 0001:000375db       __imp_load_?onRefCountZero@ConvexMesh@Gu@physx@@UAEXXZ 100385db f   PhysX3CommonDEBUG_x86:PhysX3CommonDEBUG_x86.dll
 0001:000375e5       ?onRefCountZero@ConvexMesh@Gu@physx@@UAEXXZ 100385e5 f   PhysX3CommonDEBUG_x86:PhysX3CommonDEBUG_x86.dll
 0001:000375eb       __imp_load_?release@ConvexMesh@Gu@physx@@UAEXXZ 100385eb f   PhysX3CommonDEBUG_x86:PhysX3CommonDEBUG_x86.dll
 0001:000375f5       ?release@ConvexMesh@Gu@physx@@UAEXXZ 100385f5 f   PhysX3CommonDEBUG_x86:PhysX3CommonDEBUG_x86.dll
 0001:000375fb       __imp_load_?readDword@physx@@YAI_NAAVPxInputStream@1@@Z 100385fb f   PhysX3CommonDEBUG_x86:PhysX3CommonDEBUG_x86.dll
 0001:00037605       ?readDword@physx@@YAI_NAAVPxInputStream@1@@Z 10038605 f   PhysX3CommonDEBUG_x86:PhysX3CommonDEBUG_x86.dll
 0001:0003760b       __imp_load_?ReadHeader@Gu@physx@@YA_NEEEEAAIAA_NAAVPxInputStream@2@@Z 1003860b f   PhysX3CommonDEBUG_x86:PhysX3CommonDEBUG_x86.dll
 0001:00037615       ?ReadHeader@Gu@physx@@YA_NEEEEAAIAA_NAAVPxInputStream@2@@Z 10038615 f   PhysX3CommonDEBUG_x86:PhysX3CommonDEBUG_x86.dll
 0001:0003761b       __imp_load_??0FPUGuard@shdfnd@physx@@QAE@XZ 1003861b f   PhysX3CommonDEBUG_x86:PhysX3CommonDEBUG_x86.dll
 0001:00037625       ??0FPUGuard@shdfnd@physx@@QAE@XZ 10038625 f   PhysX3CommonDEBUG_x86:PhysX3CommonDEBUG_x86.dll
 0001:0003762b       __imp_load_??1FPUGuard@shdfnd@physx@@QAE@XZ 1003862b f   PhysX3CommonDEBUG_x86:PhysX3CommonDEBUG_x86.dll
 0001:00037635       ??1FPUGuard@shdfnd@physx@@QAE@XZ 10038635 f   PhysX3CommonDEBUG_x86:PhysX3CommonDEBUG_x86.dll
 0001:0003763b       __imp_load_?incRefCount@Foundation@shdfnd@physx@@SAXXZ 1003863b f   PhysX3CommonDEBUG_x86:PhysX3CommonDEBUG_x86.dll
 0001:00037645       ?incRefCount@Foundation@shdfnd@physx@@SAXXZ 10038645 f   PhysX3CommonDEBUG_x86:PhysX3CommonDEBUG_x86.dll
 0001:0003764b       __imp_load_?decRefCount@Foundation@shdfnd@physx@@SAXXZ 1003864b f   PhysX3CommonDEBUG_x86:PhysX3CommonDEBUG_x86.dll
 0001:00037655       ?decRefCount@Foundation@shdfnd@physx@@SAXXZ 10038655 f   PhysX3CommonDEBUG_x86:PhysX3CommonDEBUG_x86.dll
 0001:0003765b       __imp_load_??0TriangleMesh@Gu@physx@@QAE@XZ 1003865b f   PhysX3CommonDEBUG_x86:PhysX3CommonDEBUG_x86.dll
 0001:00037665       ??0TriangleMesh@Gu@physx@@QAE@XZ 10038665 f   PhysX3CommonDEBUG_x86:PhysX3CommonDEBUG_x86.dll
 0001:0003766b       __imp_load_?checkMeshIndicesSize@TriangleMesh@Gu@physx@@QAEXXZ 1003866b f   PhysX3CommonDEBUG_x86:PhysX3CommonDEBUG_x86.dll
 0001:00037675       ?checkMeshIndicesSize@TriangleMesh@Gu@physx@@QAEXXZ 10038675 f   PhysX3CommonDEBUG_x86:PhysX3CommonDEBUG_x86.dll
 0001:0003767b       __imp_load_??1TriangleMesh@Gu@physx@@UAE@XZ 1003867b f   PhysX3CommonDEBUG_x86:PhysX3CommonDEBUG_x86.dll
 0001:00037685       ??1TriangleMesh@Gu@physx@@UAE@XZ 10038685 f   PhysX3CommonDEBUG_x86:PhysX3CommonDEBUG_x86.dll
 0001:0003768b       __imp_load_??0HeightField@Gu@physx@@QAE@PAVGuMeshFactory@2@@Z 1003868b f   PhysX3CommonDEBUG_x86:PhysX3CommonDEBUG_x86.dll
 0001:00037695       ??0HeightField@Gu@physx@@QAE@PAVGuMeshFactory@2@@Z 10038695 f   PhysX3CommonDEBUG_x86:PhysX3CommonDEBUG_x86.dll
 0001:0003769b       __imp_load_?loadFromDesc@HeightField@Gu@physx@@QAE_NABVPxHeightFieldDesc@3@_N@Z 1003869b f   PhysX3CommonDEBUG_x86:PhysX3CommonDEBUG_x86.dll
 0001:000376a5       ?loadFromDesc@HeightField@Gu@physx@@QAE_NABVPxHeightFieldDesc@3@_N@Z 100386a5 f   PhysX3CommonDEBUG_x86:PhysX3CommonDEBUG_x86.dll
 0001:000376ab       __imp_load_?releaseMemory@HeightField@Gu@physx@@QAEX_N@Z 100386ab f   PhysX3CommonDEBUG_x86:PhysX3CommonDEBUG_x86.dll
 0001:000376b5       ?releaseMemory@HeightField@Gu@physx@@QAEX_N@Z 100386b5 f   PhysX3CommonDEBUG_x86:PhysX3CommonDEBUG_x86.dll
 0001:000376bb       __imp_load_?exportExtraData@TriangleMesh@Gu@physx@@UAEXAAVPxSerializationContext@3@@Z 100386bb f   PhysX3CommonDEBUG_x86:PhysX3CommonDEBUG_x86.dll
 0001:000376c5       ?exportExtraData@TriangleMesh@Gu@physx@@UAEXAAVPxSerializationContext@3@@Z 100386c5 f   PhysX3CommonDEBUG_x86:PhysX3CommonDEBUG_x86.dll
 0001:000376cb       __imp_load_?getConcreteTypeName@PxTriangleMesh@physx@@UBEPBDXZ 100386cb f   PhysX3CommonDEBUG_x86:PhysX3CommonDEBUG_x86.dll
 0001:000376d5       ?getConcreteTypeName@PxTriangleMesh@physx@@UBEPBDXZ 100386d5 f   PhysX3CommonDEBUG_x86:PhysX3CommonDEBUG_x86.dll
 0001:000376db       __imp_load_?getLocalBounds@TriangleMesh@Gu@physx@@UBE?AVPxBounds3@3@XZ 100386db f   PhysX3CommonDEBUG_x86:PhysX3CommonDEBUG_x86.dll
 0001:000376e5       ?getLocalBounds@TriangleMesh@Gu@physx@@UBE?AVPxBounds3@3@XZ 100386e5 f   PhysX3CommonDEBUG_x86:PhysX3CommonDEBUG_x86.dll
 0001:000376eb       __imp_load_?getNbTriangles@TriangleMesh@Gu@physx@@UBEIXZ 100386eb f   PhysX3CommonDEBUG_x86:PhysX3CommonDEBUG_x86.dll
 0001:000376f5       ?getNbTriangles@TriangleMesh@Gu@physx@@UBEIXZ 100386f5 f   PhysX3CommonDEBUG_x86:PhysX3CommonDEBUG_x86.dll
 0001:000376fb       __imp_load_?getNbVertices@TriangleMesh@Gu@physx@@UBEIXZ 100386fb f   PhysX3CommonDEBUG_x86:PhysX3CommonDEBUG_x86.dll
 0001:00037705       ?getNbVertices@TriangleMesh@Gu@physx@@UBEIXZ 10038705 f   PhysX3CommonDEBUG_x86:PhysX3CommonDEBUG_x86.dll
 0001:0003770b       __imp_load_?getReferenceCount@TriangleMesh@Gu@physx@@UBEIXZ 1003870b f   PhysX3CommonDEBUG_x86:PhysX3CommonDEBUG_x86.dll
 0001:00037715       ?getReferenceCount@TriangleMesh@Gu@physx@@UBEIXZ 10038715 f   PhysX3CommonDEBUG_x86:PhysX3CommonDEBUG_x86.dll
 0001:0003771b       __imp_load_?getTriangleMaterialIndex@TriangleMesh@Gu@physx@@UBEGI@Z 1003871b f   PhysX3CommonDEBUG_x86:PhysX3CommonDEBUG_x86.dll
 0001:00037725       ?getTriangleMaterialIndex@TriangleMesh@Gu@physx@@UBEGI@Z 10038725 f   PhysX3CommonDEBUG_x86:PhysX3CommonDEBUG_x86.dll
 0001:0003772b       __imp_load_?getTriangleMeshFlags@TriangleMesh@Gu@physx@@UBE?AV?$PxFlags@W4Enum@PxTriangleMeshFlag@physx@@E@3@XZ 1003872b f   PhysX3CommonDEBUG_x86:PhysX3CommonDEBUG_x86.dll
 0001:00037735       ?getTriangleMeshFlags@TriangleMesh@Gu@physx@@UBE?AV?$PxFlags@W4Enum@PxTriangleMeshFlag@physx@@E@3@XZ 10038735 f   PhysX3CommonDEBUG_x86:PhysX3CommonDEBUG_x86.dll
 0001:0003773b       __imp_load_?getTriangles@TriangleMesh@Gu@physx@@UBEPBXXZ 1003873b f   PhysX3CommonDEBUG_x86:PhysX3CommonDEBUG_x86.dll
 0001:00037745       ?getTriangles@TriangleMesh@Gu@physx@@UBEPBXXZ 10038745 f   PhysX3CommonDEBUG_x86:PhysX3CommonDEBUG_x86.dll
 0001:0003774b       __imp_load_?getTrianglesRemap@TriangleMesh@Gu@physx@@UBEPBIXZ 1003874b f   PhysX3CommonDEBUG_x86:PhysX3CommonDEBUG_x86.dll
 0001:00037755       ?getTrianglesRemap@TriangleMesh@Gu@physx@@UBEPBIXZ 10038755 f   PhysX3CommonDEBUG_x86:PhysX3CommonDEBUG_x86.dll
 0001:0003775b       __imp_load_?getVertices@TriangleMesh@Gu@physx@@UBEPBVPxVec3@3@XZ 1003875b f   PhysX3CommonDEBUG_x86:PhysX3CommonDEBUG_x86.dll
 0001:00037765       ?getVertices@TriangleMesh@Gu@physx@@UBEPBVPxVec3@3@XZ 10038765 f   PhysX3CommonDEBUG_x86:PhysX3CommonDEBUG_x86.dll
 0001:0003776b       __imp_load_?isKindOf@PxTriangleMesh@physx@@MBE_NPBD@Z 1003876b f   PhysX3CommonDEBUG_x86:PhysX3CommonDEBUG_x86.dll
 0001:00037775       ?isKindOf@PxTriangleMesh@physx@@MBE_NPBD@Z 10038775 f   PhysX3CommonDEBUG_x86:PhysX3CommonDEBUG_x86.dll
 0001:0003777b       __imp_load_?onRefCountZero@TriangleMesh@Gu@physx@@UAEXXZ 1003877b f   PhysX3CommonDEBUG_x86:PhysX3CommonDEBUG_x86.dll
 0001:00037785       ?onRefCountZero@TriangleMesh@Gu@physx@@UAEXXZ 10038785 f   PhysX3CommonDEBUG_x86:PhysX3CommonDEBUG_x86.dll
 0001:0003778b       __imp_load_?release@TriangleMesh@Gu@physx@@UAEXXZ 1003878b f   PhysX3CommonDEBUG_x86:PhysX3CommonDEBUG_x86.dll
 0001:00037795       ?release@TriangleMesh@Gu@physx@@UAEXXZ 10038795 f   PhysX3CommonDEBUG_x86:PhysX3CommonDEBUG_x86.dll
 0001:0003779b       __imp_load_?has16BitIndices@InternalTriangleMesh@physx@@QBE_NXZ 1003879b f   PhysX3CommonDEBUG_x86:PhysX3CommonDEBUG_x86.dll
 0001:000377a5       ?has16BitIndices@InternalTriangleMesh@physx@@QBE_NXZ 100387a5 f   PhysX3CommonDEBUG_x86:PhysX3CommonDEBUG_x86.dll
 0001:000377ab       __imp_load_?setTriangleAdjacency@InternalTriangleMesh@physx@@QAEXIII@Z 100387ab f   PhysX3CommonDEBUG_x86:PhysX3CommonDEBUG_x86.dll
 0001:000377b5       ?setTriangleAdjacency@InternalTriangleMesh@physx@@QAEXIII@Z 100387b5 f   PhysX3CommonDEBUG_x86:PhysX3CommonDEBUG_x86.dll
 0001:000377bb       __imp_load_?setupMeshInterface@InternalTriangleMesh@physx@@QAEXXZ 100387bb f   PhysX3CommonDEBUG_x86:PhysX3CommonDEBUG_x86.dll
 0001:000377c5       ?setupMeshInterface@InternalTriangleMesh@physx@@QAEXXZ 100387c5 f   PhysX3CommonDEBUG_x86:PhysX3CommonDEBUG_x86.dll
 0001:000377cb       ??$PFromRva@PAP6GHXZ@@YGPAP6GHXZK@Z 100387cb f i delayimp:delayhlp.obj
 0001:000377dd       ??$PFromRva@PAPAUHINSTANCE__@@@@YGPAPAUHINSTANCE__@@K@Z 100387dd f i delayimp:delayhlp.obj
 0001:000377ef       ??$PFromRva@PAU_IMAGE_IMPORT_BY_NAME@@@@YGPAU_IMAGE_IMPORT_BY_NAME@@K@Z 100387ef f i delayimp:delayhlp.obj
 0001:00037801       ??$PFromRva@PAU_IMAGE_THUNK_DATA32@@@@YGPAU_IMAGE_THUNK_DATA32@@K@Z 10038801 f i delayimp:delayhlp.obj
 0001:00037813       ??$PFromRva@PBD@@YGPBDK@Z  10038813 f i delayimp:delayhlp.obj
 0001:00037825       ??$PFromRva@PBUImgDelayDescr@@@@YGPBUImgDelayDescr@@K@Z 10038825 f i delayimp:delayhlp.obj
 0001:00037837       ??$PFromRva@PBU_IMAGE_THUNK_DATA32@@@@YGPBU_IMAGE_THUNK_DATA32@@K@Z 10038837 f i delayimp:delayhlp.obj
 0001:00037849       ?CountOfImports@@YGIPBU_IMAGE_THUNK_DATA32@@@Z 10038849 f i delayimp:delayhlp.obj
 0001:0003787b       ?IndexFromPImgThunkData@@YGIPBU_IMAGE_THUNK_DATA32@@0@Z 1003887b f i delayimp:delayhlp.obj
 0001:000379d5       _HRESULT_FROM_WIN32@4      100389d5 f i delayimp:delayhlp.obj
 0001:000379ed       ___FUnloadDelayLoadedDLL2@4 100389ed f   delayimp:delayhlp.obj
 0001:00037a61       ___HrLoadAllImportsForDll@4 10038a61 f   delayimp:delayhlp.obj
 0001:00037ac3       ___delayLoadHelper2@8      10038ac3 f   delayimp:delayhlp.obj
 0001:00037cd6       _strcmp                    10038cd6 f   MSVCRTD:MSVCR120D.dll
 0001:00037cdc       _strstr                    10038cdc f   MSVCRTD:MSVCR120D.dll
 0001:00037cf0       __RTC_InitBase             10038cf0 f   MSVCRTD:init.obj
 0001:00037d20       __RTC_Shutdown             10038d20 f   MSVCRTD:init.obj
 0001:00037d34       _memset                    10038d34 f   MSVCRTD:MSVCR120D.dll
 0001:00037d40       ??_V@YAXPAX@Z              10038d40 f   MSVCRTD:MSVCR120D.dll
 0001:00037d46       ??_U@YAPAXI@Z              10038d46 f   MSVCRTD:MSVCR120D.dll
 0001:00037d4c       __fpclass                  10038d4c f   MSVCRTD:MSVCR120D.dll
 0001:00037d60       __alloca_probe_16          10038d60 f   MSVCRTD:alloca16.obj
 0001:00037d76       __alloca_probe_8           10038d76     MSVCRTD:alloca16.obj
 0001:00037d90       __ftoui3                   10038d90 f   MSVCRTD:ftol3.obj
 0001:00037d9f       __ftoul3                   10038d9f f   MSVCRTD:ftol3.obj
 0001:00037dae       __ftol3                    10038dae f   MSVCRTD:ftol3.obj
 0001:00037dbb       __ftol3_NaN                10038dbb f   MSVCRTD:ftol3.obj
 0001:00037dd3       __ftol3_work               10038dd3 f   MSVCRTD:ftol3.obj
 0001:00037e59       __ftol3_common             10038e59 f   MSVCRTD:ftol3.obj
 0001:00037f1b       __ftol3_arg_error          10038f1b f   MSVCRTD:ftol3.obj
 0001:00037f2d       __ftol3_except             10038f2d f   MSVCRTD:ftol3.obj
 0001:00037f71       __dtoui3                   10038f71 f   MSVCRTD:ftol3.obj
 0001:00037f80       __dtoul3                   10038f80 f   MSVCRTD:ftol3.obj
 0001:00037f8f       __dtol3                    10038f8f f   MSVCRTD:ftol3.obj
 0001:00037f9c       __dtol3_NaN                10038f9c f   MSVCRTD:ftol3.obj
 0001:00037fb9       __dtol3_work               10038fb9 f   MSVCRTD:ftol3.obj
 0001:0003809e       __ultod3                   1003909e f   MSVCRTD:ftol3.obj
 0001:0003812f       __ltod3                    1003912f f   MSVCRTD:ftol3.obj
 0001:0003815e       _memcpy                    1003915e f   MSVCRTD:MSVCR120D.dll
 0001:00038164       _fabs                      10039164 f   MSVCRTD:MSVCR120D.dll
 0001:0003816a       _pow                       1003916a f   MSVCRTD:MSVCR120D.dll
 0001:00038170       ?name@type_info@@QBEPBDPAU__type_info_node@@@Z 10039170 f   MSVCRTD:MSVCR120D.dll
 0001:00038180       ___clean_type_info_names   10039180 f   MSVCRTD:tncleanup.obj
 0001:000381a0       ??0type_info@@AAE@ABV0@@Z  100391a0 f   MSVCRTD:ti_inst.obj
 0001:000381c0       ??4type_info@@AAEAAV0@ABV0@@Z 100391c0 f   MSVCRTD:ti_inst.obj
 0001:000381d0       ??_Etype_info@@UAEPAXI@Z   100391d0 f i MSVCRTD:ti_inst.obj
 0001:0003823a       _sqrt                      1003923a f   MSVCRTD:MSVCR120D.dll
 0001:00038240       ??3@YAXPAX@Z               10039240 f   MSVCRTD:MSVCR120D.dll
 0001:00038246       _printf                    10039246 f   MSVCRTD:MSVCR120D.dll
 0001:0003824c       _cos                       1003924c f   MSVCRTD:MSVCR120D.dll
 0001:00038252       _sin                       10039252 f   MSVCRTD:MSVCR120D.dll
 0001:00038260       __chkstk                   10039260 f   MSVCRTD:chkstk.obj
 0001:00038260       __alloca_probe             10039260 f   MSVCRTD:chkstk.obj
 0001:0003828c       __purecall                 1003928c f   MSVCRTD:MSVCR120D.dll
 0001:00038292       _atan2                     10039292 f   MSVCRTD:MSVCR120D.dll
 0001:00038298       _floor                     10039298 f   MSVCRTD:MSVCR120D.dll
 0001:00038320       _NtCurrentTeb              10039320 f i MSVCRTD:crtdll.obj
 0001:00038330       __CRT_INIT@12              10039330 f   MSVCRTD:crtdll.obj
 0001:00038610       __DllMainCRTStartup@12     10039610 f   MSVCRTD:crtdll.obj
 0001:00038800       ?_RTC_GetErrorFunc@@YAP6AHHPBDH00ZZPBX@Z 10039800 f   MSVCRTD:userapi.obj
 0001:00038810       ?_RTC_GetErrorFuncW@@YAP6AHHPB_WH00ZZPBX@Z 10039810 f   MSVCRTD:userapi.obj
 0001:00038820       __RTC_GetErrDesc           10039820 f   MSVCRTD:userapi.obj
 0001:00038840       __RTC_NumErrors            10039840 f   MSVCRTD:userapi.obj
 0001:00038850       __RTC_SetErrorFunc         10039850 f   MSVCRTD:userapi.obj
 0001:00038870       __RTC_SetErrorFuncW        10039870 f   MSVCRTD:userapi.obj
 0001:00038890       __RTC_SetErrorType         10039890 f   MSVCRTD:userapi.obj
 0001:000388b4       __CRT_RTC_INITW            100398b4 f   MSVCRTD:MSVCR120D.dll
 0001:000388ba       __except1                  100398ba f   MSVCRTD:MSVCR120D.dll
 0001:000388c0       ___clean_type_info_names_internal 100398c0 f   MSVCRTD:MSVCR120D.dll
 0001:000388d0       ??_M@YGXPAXIHP6EX0@Z@Z     100398d0 f   MSVCRTD:ehvecdtr.obj
 0001:000389b0       ?__ArrayUnwind@@YGXPAXIHP6EX0@Z@Z 100399b0 f   MSVCRTD:ehvecdtr.obj
 0001:00038a3a       ??1type_info@@UAE@XZ       10039a3a f   MSVCRTD:MSVCR120D.dll
 0001:00038a40       ___CppXcptFilter           10039a40 f   MSVCRTD:MSVCR120D.dll
 0001:00038a46       __amsg_exit                10039a46 f   MSVCRTD:MSVCR120D.dll
 0001:00038a4c       __malloc_dbg               10039a4c f   MSVCRTD:MSVCR120D.dll
 0001:00038a52       __free_dbg                 10039a52 f   MSVCRTD:MSVCR120D.dll
 0001:00038a58       __CrtSetCheckCount         10039a58 f   MSVCRTD:MSVCR120D.dll
 0001:00038a60       __FindPESection            10039a60 f   MSVCRTD:pesect.obj
 0001:00038ae0       __IsNonwritableInCurrentImage 10039ae0 f   MSVCRTD:pesect.obj
 0001:00038c10       __ValidateImageBase        10039c10 f   MSVCRTD:pesect.obj
 0001:00038c70       ___atonexitinit            10039c70 f   MSVCRTD:atonexit.obj
 0001:00038d20       __onexit                   10039d20 f   MSVCRTD:atonexit.obj
 0001:00038e20       _atexit                    10039e20 f   MSVCRTD:atonexit.obj
 0001:00038e50       ___security_init_cookie    10039e50 f   MSVCRTD:gs_support.obj
 0001:00038f30       _DllMain@12                10039f30 f   MSVCRTD:dllmain.obj
 0001:00038f60       __RTC_Initialize           10039f60 f   MSVCRTD:initsect.obj
 0001:00038f90       __RTC_Terminate            10039f90 f   MSVCRTD:initsect.obj
 0001:00038fb6       __initterm                 10039fb6 f   MSVCRTD:MSVCR120D.dll
 0001:00038fbc       __initterm_e               10039fbc f   MSVCRTD:MSVCR120D.dll
 0001:00038fd0       __except_handler4          10039fd0 f   MSVCRTD:chandler4gs.obj
 0001:00039150       ?_RTC_AllocaFailure@@YAXPAXPAU_RTC_ALLOCA_NODE@@H@Z 1003a150 f   MSVCRTD:error.obj
 0001:000392d0       ?_RTC_Failure@@YAXPAXH@Z   1003a2d0 f   MSVCRTD:error.obj
 0001:00039320       ?_RTC_StackFailure@@YAXPAXPBD@Z 1003a320 f   MSVCRTD:error.obj
 0001:000396a0       __RTC_UninitUse            1003a6a0 f   MSVCRTD:error.obj
 0001:0003978e       ?terminate@@YAXXZ          1003a78e f   MSVCRTD:MSVCR120D.dll
 0001:00039794       __lock                     1003a794 f   MSVCRTD:MSVCR120D.dll
 0001:0003979a       __unlock                   1003a79a f   MSVCRTD:MSVCR120D.dll
 0001:000397a0       __CrtDbgReportW            1003a7a0 f   MSVCRTD:MSVCR120D.dll
 0001:000397a6       __calloc_dbg               1003a7a6 f   MSVCRTD:MSVCR120D.dll
 0001:000397ac       ___dllonexit               1003a7ac f   MSVCRTD:MSVCR120D.dll
 0001:000397c0       @__security_check_cookie@4 1003a7c0 f   MSVCRTD:secchk.obj
 0001:000397d0       __except_handler4_common   1003a7d0 f   MSVCRTD:MSVCR120D.dll
 0001:00039c20       ?_RTC_GetSrcLine@@YAHPAEPA_WKPAH1K@Z 1003ac20 f   MSVCRTD:pdblkup.obj
 0001:00039ed0       ___raise_securityfailure   1003aed0 f   MSVCRTD:gs_report.obj
 0001:00039f20       ___report_gsfailure        1003af20 f   MSVCRTD:gs_report.obj
 0001:0003a030       ___report_rangecheckfailure 1003b030 f   MSVCRTD:gs_report.obj
 0001:0003a040       ___report_securityfailure  1003b040 f   MSVCRTD:gs_report.obj
 0001:0003a120       ___report_securityfailureEx 1003b120 f   MSVCRTD:gs_report.obj
 0001:0003a246       _wcscpy_s                  1003b246 f   MSVCRTD:MSVCR120D.dll
 0001:0003a24c       __wmakepath_s              1003b24c f   MSVCRTD:MSVCR120D.dll
 0001:0003a252       __wsplitpath_s             1003b252 f   MSVCRTD:MSVCR120D.dll
 0001:0003a258       __crt_debugger_hook        1003b258 f   MSVCRTD:MSVCR120D.dll
 0001:0003a25e       ___crtUnhandledException   1003b25e f   MSVCRTD:MSVCR120D.dll
 0001:0003a264       ___crtTerminateProcess     1003b264 f   MSVCRTD:MSVCR120D.dll
 0001:0003a26a       _RaiseException@16         1003b26a f   kernel32:KERNEL32.dll
 0001:0003a270       _GetLastError@0            1003b270 f   kernel32:KERNEL32.dll
 0001:0003a276       _FreeLibrary@4             1003b276 f   kernel32:KERNEL32.dll
 0001:0003a27c       _GetProcAddress@8          1003b27c f   kernel32:KERNEL32.dll
 0001:0003a282       _LoadLibraryExA@12         1003b282 f   kernel32:KERNEL32.dll
 0001:0003a288       _EncodePointer@4           1003b288 f   kernel32:KERNEL32.dll
 0001:0003a28e       _DecodePointer@4           1003b28e f   kernel32:KERNEL32.dll
 0001:0003a294       _QueryPerformanceCounter@4 1003b294 f   kernel32:KERNEL32.dll
 0001:0003a29a       _GetCurrentProcessId@0     1003b29a f   kernel32:KERNEL32.dll
 0001:0003a2a0       _GetCurrentThreadId@0      1003b2a0 f   kernel32:KERNEL32.dll
 0001:0003a2a6       _GetSystemTimeAsFileTime@4 1003b2a6 f   kernel32:KERNEL32.dll
 0001:0003a2ac       _DisableThreadLibraryCalls@4 1003b2ac f   kernel32:KERNEL32.dll
 0001:0003a2b2       _IsDebuggerPresent@0       1003b2b2 f   kernel32:KERNEL32.dll
 0001:0003a2b8       _LoadLibraryExW@12         1003b2b8 f   kernel32:KERNEL32.dll
 0001:0003a2be       _MultiByteToWideChar@24    1003b2be f   kernel32:KERNEL32.dll
 0001:0003a2c4       _WideCharToMultiByte@32    1003b2c4 f   kernel32:KERNEL32.dll
 0001:0003a2ca       _HeapAlloc@12              1003b2ca f   kernel32:KERNEL32.dll
 0001:0003a2d0       _HeapFree@12               1003b2d0 f   kernel32:KERNEL32.dll
 0001:0003a2d6       _GetProcessHeap@0          1003b2d6 f   kernel32:KERNEL32.dll
 0001:0003a2dc       _VirtualQuery@12           1003b2dc f   kernel32:KERNEL32.dll
 0001:0003a2e2       _GetModuleFileNameW@12     1003b2e2 f   kernel32:KERNEL32.dll
 0001:0003a2e8       _GetModuleHandleW@4        1003b2e8 f   kernel32:KERNEL32.dll
 0001:0003a2ee       _IsProcessorFeaturePresent@4 1003b2ee f   kernel32:KERNEL32.dll
 0002:00000000       ___xc_a                    1003e000     MSVCRTD:cinitexe.obj
 0002:00000278       ___xc_z                    1003e278     MSVCRTD:cinitexe.obj
 0002:0000037c       ___xi_a                    1003e37c     MSVCRTD:cinitexe.obj
 0002:00000688       ___xi_z                    1003e688     MSVCRTD:cinitexe.obj
 0002:000007c8       ??_C@_0BK@KKGDMEEI@PhysX3CommonDEBUG_x64?4dll?$AA@ 1003e7c8     WindowsCookingDelayLoadHook.obj
 0002:000007e8       ??_C@_0BM@FGKCIMCL@PhysX3CommonCHECKED_x64?4dll?$AA@ 1003e7e8     WindowsCookingDelayLoadHook.obj
 0002:0000080c       ??_C@_0BM@NIMEGLC@PhysX3CommonPROFILE_x64?4dll?$AA@ 1003e80c     WindowsCookingDelayLoadHook.obj
 0002:00000830       ??_C@_0BF@HEEMOJKO@PhysX3Common_x64?4dll?$AA@ 1003e830     WindowsCookingDelayLoadHook.obj
 0002:0000084c       ??_C@_0BK@LHJEBOBO@PhysX3CommonDEBUG_x86?4dll?$AA@ 1003e84c     WindowsCookingDelayLoadHook.obj
 0002:0000086c       ??_C@_0BM@ELFFFGHN@PhysX3CommonCHECKED_x86?4dll?$AA@ 1003e86c     WindowsCookingDelayLoadHook.obj
 0002:00000890       ??_C@_0BM@BAHLJMOE@PhysX3CommonPROFILE_x86?4dll?$AA@ 1003e890     WindowsCookingDelayLoadHook.obj
 0002:000008b4       ??_C@_0BF@GJLLDDPI@PhysX3Common_x86?4dll?$AA@ 1003e8b4     WindowsCookingDelayLoadHook.obj
 0002:000008d0       ??_C@_0BK@FCFCOGBN@PhysX3CommonDEBUG_arm?4dll?$AA@ 1003e8d0     WindowsCookingDelayLoadHook.obj
 0002:000008f0       ??_C@_0BM@KOJDKOHO@PhysX3CommonCHECKED_arm?4dll?$AA@ 1003e8f0     WindowsCookingDelayLoadHook.obj
 0002:00000914       ??_C@_0BM@PFLNGEOH@PhysX3CommonPROFILE_arm?4dll?$AA@ 1003e914     WindowsCookingDelayLoadHook.obj
 0002:00000938       ??_C@_0BF@IMHNMLPL@PhysX3Common_arm?4dll?$AA@ 1003e938     WindowsCookingDelayLoadHook.obj
 0002:00000954       ??_C@_08NNMANNNO@_x64?4dll?$AA@ 1003e954     WindowsCookingDelayLoadHook.obj
 0002:00000960       ??_C@_0O@LLBCKODF@DEBUG_x64?4dll?$AA@ 1003e960     WindowsCookingDelayLoadHook.obj
 0002:00000970       ??_C@_0BA@GBFEBCKH@CHECKED_x64?4dll?$AA@ 1003e970     WindowsCookingDelayLoadHook.obj
 0002:00000984       ??_C@_0BA@DKHKNIDO@PROFILE_x64?4dll?$AA@ 1003e984     WindowsCookingDelayLoadHook.obj
 0002:00000998       ??_C@_08MADHAHII@_x86?4dll?$AA@ 1003e998     WindowsCookingDelayLoadHook.obj
 0002:000009a4       ??_C@_0O@KGOFHEGD@DEBUG_x86?4dll?$AA@ 1003e9a4     WindowsCookingDelayLoadHook.obj
 0002:000009b4       ??_C@_0BA@HMKDMIPB@CHECKED_x86?4dll?$AA@ 1003e9b4     WindowsCookingDelayLoadHook.obj
 0002:000009c8       ??_C@_0BA@CHINACGI@PROFILE_x86?4dll?$AA@ 1003e9c8     WindowsCookingDelayLoadHook.obj
 0002:000009e0       ?g_PXSinCoefficients0@aos@shdfnd@physx@@3UPX_VECTORF32@123@B 1003e9e0     RTreeCooking.obj
 0002:00000a00       ?reductionFactors@SubSortQuick@physx@@2QBMB 1003ea00     RTreeCooking.obj
 0002:00000a0c       ?stopAtTrisPerLeaf1@SubSortQuick@physx@@2QBIB 1003ea0c     RTreeCooking.obj
 0002:00000b00       ?g_PXSinCoefficients1@aos@shdfnd@physx@@3UPX_VECTORF32@123@B 1003eb00     RTreeCooking.obj
 0002:00000b20       ?g_PXSinCoefficients2@aos@shdfnd@physx@@3UPX_VECTORF32@123@B 1003eb20     RTreeCooking.obj
 0002:00000b40       ?g_PXCosCoefficients0@aos@shdfnd@physx@@3UPX_VECTORF32@123@B 1003eb40     RTreeCooking.obj
 0002:00000b60       ?g_PXCosCoefficients1@aos@shdfnd@physx@@3UPX_VECTORF32@123@B 1003eb60     RTreeCooking.obj
 0002:00000b80       ?g_PXCosCoefficients2@aos@shdfnd@physx@@3UPX_VECTORF32@123@B 1003eb80     RTreeCooking.obj
 0002:00000ba0       ?g_PXTanCoefficients0@aos@shdfnd@physx@@3UPX_VECTORF32@123@B 1003eba0     RTreeCooking.obj
 0002:00000bc0       ?g_PXTanCoefficients1@aos@shdfnd@physx@@3UPX_VECTORF32@123@B 1003ebc0     RTreeCooking.obj
 0002:00000be0       ?g_PXTanCoefficients2@aos@shdfnd@physx@@3UPX_VECTORF32@123@B 1003ebe0     RTreeCooking.obj
 0002:00000c00       ?g_PXASinCoefficients0@aos@shdfnd@physx@@3UPX_VECTORF32@123@B 1003ec00     RTreeCooking.obj
 0002:00000c20       ?g_PXASinCoefficients1@aos@shdfnd@physx@@3UPX_VECTORF32@123@B 1003ec20     RTreeCooking.obj
 0002:00000c40       ?g_PXASinCoefficients2@aos@shdfnd@physx@@3UPX_VECTORF32@123@B 1003ec40     RTreeCooking.obj
 0002:00000c60       ?g_PXATanCoefficients0@aos@shdfnd@physx@@3UPX_VECTORF32@123@B 1003ec60     RTreeCooking.obj
 0002:00000c80       ?g_PXATanCoefficients1@aos@shdfnd@physx@@3UPX_VECTORF32@123@B 1003ec80     RTreeCooking.obj
 0002:00000ca0       ?g_PXATanCoefficients2@aos@shdfnd@physx@@3UPX_VECTORF32@123@B 1003eca0     RTreeCooking.obj
 0002:00000cc0       ?g_PXSinEstCoefficients@aos@shdfnd@physx@@3UPX_VECTORF32@123@B 1003ecc0     RTreeCooking.obj
 0002:00000ce0       ?g_PXCosEstCoefficients@aos@shdfnd@physx@@3UPX_VECTORF32@123@B 1003ece0     RTreeCooking.obj
 0002:00000d00       ?g_PXASinEstCoefficients@aos@shdfnd@physx@@3UPX_VECTORF32@123@B 1003ed00     RTreeCooking.obj
 0002:00000d18       ??_C@_0GM@NPAOBMPE@C?3?2Users?2Eloi?2Documents?2MASTER?2P@ 1003ed18     RTreeCooking.obj
 0002:00000d9c       ??_C@_08LJALFGJN@index?$DM?$DN2?$AA@ 1003ed9c     RTreeCooking.obj
 0002:00000da8       ??_C@_0GP@DDBLPCIH@C?3?2Users?2Eloi?2Documents?2MASTER?2P@ 1003eda8     RTreeCooking.obj
 0002:00000e30       ??_C@_0BL@KNHPBBHJ@isValid?$CI?$CJ?5?$CG?$CG?5box?4isValid?$CI?$CJ?$AA@ 1003ee30     RTreeCooking.obj
 0002:00000e50       ??_C@_0CN@HEFMNGKD@?4?4?2?4?4?2PhysXCooking?2src?2mesh?2RTre@ 1003ee50     RTreeCooking.obj
 0002:00000e88       ??_C@_0DP@MOLEKNBA@Input?5mesh?5triangle?8s?5vertex?5ind@ 1003ee88     RTreeCooking.obj
 0002:00000ed4       ??_C@_0CE@OPCEFGPD@permute?5?$CL?5clusterSize?5?$DM?$DN?5permute@ 1003eed4     RTreeCooking.obj
 0002:00000f00       ??_C@_0CG@PGDOFJGF@maxBoundsPerLeafPage?5?$DO?$DN?5RT_PAGES@ 1003ef00     RTreeCooking.obj
 0002:00000f30       ??_C@_0BA@DLODHOME@clusterSize?5?$DO?50?$AA@ 1003ef30     RTreeCooking.obj
 0002:00000f44       ??_C@_0CB@HNMOHOIM@permute?$FL0?$FN?5?$DM?5boundCenters?4size?$CI?$CJ@ 1003ef44     RTreeCooking.obj
 0002:00000f6c       ??_C@_0CB@BHHEMBKC@permute?$FLi?$FN?5?$DM?5boundCenters?4size?$CI?$CJ@ 1003ef6c     RTreeCooking.obj
 0002:00000f94       ??_C@_0DE@FNPGHHHI@leftover?5?$DN?$DN?50?5?$HM?$HM?5cluster4?$CKi?5?$CL?5co@ 1003ef94     RTreeCooking.obj
 0002:00000fd4       ??_C@_0CP@DKNKGHIK@splitEndL?9splitStartL?5?$DN?$DN?5splitSt@ 1003efd4     RTreeCooking.obj
 0002:0000100c       ??_C@_0BJ@DBNEPNIE@splitStartL?5?$DM?$DN?5splitEndL?$AA@ 1003f00c     RTreeCooking.obj
 0002:0000102c       ??_C@_0BJ@CMNIPACK@splitStartR?5?$DO?$DN?5splitEndR?$AA@ 1003f02c     RTreeCooking.obj
 0002:0000104c       ??_C@_0P@FDBOEJDH@splitEndR?5?$DO?$DN?51?$AA@ 1003f04c     RTreeCooking.obj
 0002:00001060       ??_C@_0BP@OBBGEEJF@splitEndL?5?$DM?5PxI32?$CIclusterSize?$CJ?$AA@ 1003f060     RTreeCooking.obj
 0002:00001088       ??_C@_0EG@HPNFJDFJ@?$CIcountL0?5?$DN?$DN?5countR0?$CJ?5?$CG?$CG?5?$CIcountL0@ 1003f088     RTreeCooking.obj
 0002:000010dc       ??_C@_0CG@HKJJBOBJ@PxU32?$CIcountL?5?$CL?5countR?$CJ?5?$DN?$DN?5cluste@ 1003f0dc     RTreeCooking.obj
 0002:0000110c       ??_C@_0BB@BLBBKHCG@split?4count?5?$DO?$DN?51?$AA@ 1003f10c     RTreeCooking.obj
 0002:00001120       ??_C@_0BH@CPBDCMGA@maxSplit?5?$CB?$DN?50xFFFFffff?$AA@ 1003f120     RTreeCooking.obj
 0002:0000113c       ??_C@_0O@KGFPNKLN@old?4count?5?$DO?51?$AA@ 1003f13c     RTreeCooking.obj
 0002:0000114c       ??_C@_0BA@MHFPJACL@splitLocal?5?$DO?$DN?51?$AA@ 1003f14c     RTreeCooking.obj
 0002:00001160       ??_C@_0BK@HBDDGBBB@old?4count?9splitLocal?5?$DO?$DN?51?$AA@ 1003f160     RTreeCooking.obj
 0002:00001180       ??_C@_0BN@OMPBPJMJ@splits?4size?$CI?$CJ?5?$DN?$DN?5RT_PAGESIZE?$AA@ 1003f180     RTreeCooking.obj
 0002:000011a4       ??_C@_0BD@CJCBODNJ@sum?5?$DN?$DN?5clusterSize?$AA@ 1003f1a4     RTreeCooking.obj
 0002:000011bc       ??_C@_0CB@OOGGJCCO@splitStarts?$FLj?91?$FN?$DM?$DNsplitStarts?$FLj?$FN@ 1003f1bc     RTreeCooking.obj
 0002:000011e4       ??_C@_0DA@IAEOKCLN@splitCounts?$FLj?$FN?5?$DO?50?5?$HM?$HM?5clusterSiz@ 1003f1e4     RTreeCooking.obj
 0002:00001220       ??_C@_0DC@FKLAKLHP@splitStarts?$FLj?91?$FN?$CLsplitCounts?$FLj?91@ 1003f220     RTreeCooking.obj
 0002:0000125c       ??_C@_0BJ@KOIGDPK@sumCounts?5?$DN?$DN?5clusterSize?$AA@ 1003f25c     RTreeCooking.obj
 0002:00001280       ??_C@_0ED@KNANPLO@splitStarts?$FLRT_PAGESIZE?91?$FN?$CLsplit@ 1003f280     RTreeCooking.obj
 0002:000012d0       ??_C@_0BB@EAGMBNDP@splitCount?5?$DM?$DN?516?$AA@ 1003f2d0     RTreeCooking.obj
 0002:000012e4       ??_C@_0BA@FINHNEIC@splitCount?5?$DN?$DN?50?$AA@ 1003f2e4     RTreeCooking.obj
 0002:000012f8       ??_C@_0DA@DMMOJMPK@hint?5?$DN?$DN?5PxMeshCookingHint?3?3eCOOK@ 1003f2f8     RTreeCooking.obj
 0002:00001334       ??_C@_0BP@JDMAEMGC@permute?$FLnumBounds?$FN?5?$DN?$DN?5sentinel?$AA@ 1003f334     RTreeCooking.obj
 0002:0000135c       ??_C@_0BB@FMHDLFFI@?$CIq?4ptr?5?$CG?51?$CJ?5?$DN?$DN?50?$AA@ 1003f35c     RTreeCooking.obj
 0002:00001370       ??_C@_0L@DLMKKOLK@q?4isLeaf?$CI?$CJ?$AA@ 1003f370     RTreeCooking.obj
 0002:00001380       ??_C@_0DJ@FPPKJOAC@child?4leafCount?5?$DN?$DN?5?91?5?$HM?$HM?5child?4b@ 1003f380     RTreeCooking.obj
 0002:000013c4       ??_C@_0BJ@OLBICDOH@q?4ptr?5?$CF?5RT_PAGESIZE?5?$DN?$DN?50?$AA@ 1003f3c4     RTreeCooking.obj
 0002:000013e4       ??_C@_0CF@NBHJNEIK@qtreeNodes?4size?$CI?$CJ?5?$CF?5RT_PAGESIZE?5@ 1003f3e4     RTreeCooking.obj
 0002:00001410       ??_C@_0CD@GGMNBOAH@result?4mTotalNodes?5?$CF?5pageSize?5?$DN?$DN@ 1003f410     RTreeCooking.obj
 0002:00001440       ??_C@_0HE@JPPMCGOI@c?3?2users?2eloi?2documents?2master?2p@ 1003f440     RTreeCooking.obj
 0002:000014cc       ??_C@_09GCLCCGEM@i?5?$DM?5mSize?$AA@ 1003f4cc     RTreeCooking.obj
 0002:000014d8       ??_C@_05ICCGDNCO@mSize?$AA@ 1003f4d8     RTreeCooking.obj
 0002:000014e0       ??_C@_07PGKBDHFC@i?$DMmSize?$AA@ 1003f4e0     RTreeCooking.obj
 0002:000014ec       ??_C@_0BM@BMFMDKFG@this?9?$DOcapacity?$CI?$CJ?5?$DM?5capacity?$AA@ 1003f4ec     RTreeCooking.obj
 0002:00001510       ??_C@_0CP@CPGGIPKL@?$CI?$CBcapacity?$CJ?5?$HM?$HM?5?$CInewData?5?$CG?$CG?5?$CInewD@ 1003f510     RTreeCooking.obj
 0002:00001548       ??_C@_0HL@FKALLJPJ@c?3?2users?2eloi?2documents?2master?2p@ 1003f548     RTreeCooking.obj
 0002:000015dc       ??_C@_0BC@IFJJKIC@k?5?$DM?$DN?5right?9left?$CL1?$AA@ 1003f5dc     RTreeCooking.obj
 0002:000015f4       ??_C@_0BC@KALADCPB@pivotNewIndex?5?$DO?50?$AA@ 1003f5f4     RTreeCooking.obj
 0002:0000160c       ??_C@_0CK@HLNPMLG@pivotIndex?5?$DO?$DN?5left?5?$CG?$CG?5pivotIndex@ 1003f60c     RTreeCooking.obj
 0002:00001640       ??_C@_0BN@MBNGPAEL@cmpLtEq?$CIa?$FLi?$FN?0?5a?$FLstoreIndex?$FN?$CJ?$AA@ 1003f640     RTreeCooking.obj
 0002:00001664       ??_C@_0BN@PDFALILH@cmpLtEq?$CIa?$FLstoreIndex?$FN?0?5a?$FLi?$FN?$CJ?$AA@ 1003f664     RTreeCooking.obj
 0002:00001688       ??_C@_0HD@CPOHAOCH@C?3?2Users?2Eloi?2Documents?2MASTER?2P@ 1003f688     RTreeCooking.obj
 0002:00001714       ??_C@_0CC@OFEDJMLN@first?5?$DO?$DN?50?5?$CG?$CG?5last?5?$DM?5?$CIPxI32?$CJcoun@ 1003f714     RTreeCooking.obj
 0002:0000173c       ??_C@_0CE@JEKBEHJN@?$CBcompare?$CIelements?$FLi?$FN?0elements?$FLi?9@ 1003f73c     RTreeCooking.obj
 0002:00001768       ??_C@_0HM@BIHBFABB@c?3?2users?2eloi?2documents?2master?2p@ 1003f768     RTreeCooking.obj
 0002:000017fc       ??_C@_08JNEJNCCA@?$CBempty?$CI?$CJ?$AA@ 1003f7fc     RTreeCooking.obj
 0002:00001808       ??_C@_0BE@IEAAKGDK@i?$DM?$DNlast?5?$CG?$CG?5j?$DO?$DNfirst?$AA@ 1003f808     RTreeCooking.obj
 0002:00001820       ??_C@_0BL@LHJILAEN@i?$DM?$DNlast?5?$CG?$CG?5first?$DM?$DN?$CIlast?91?$CJ?$AA@ 1003f820     RTreeCooking.obj
 0002:00001840       __real@00000000            1003f840     RTreeCooking.obj
 0002:00001844       __real@3a03126f            1003f844     RTreeCooking.obj
 0002:00001848       __real@3a83126f            1003f848     RTreeCooking.obj
 0002:0000184c       __real@3f800000            1003f84c     RTreeCooking.obj
 0002:00001850       __real@41100000            1003f850     RTreeCooking.obj
 0002:00001854       __real@41700000            1003f854     RTreeCooking.obj
 0002:00001858       __real@42200000            1003f858     RTreeCooking.obj
 0002:0000185c       __real@477fff00            1003f85c     RTreeCooking.obj
 0002:00001860       __real@7e7fffff            1003f860     RTreeCooking.obj
 0002:00001864       __real@7f7fffff            1003f864     RTreeCooking.obj
 0002:00001868       __real@ba83126f            1003f868     RTreeCooking.obj
 0002:0000186c       __real@fe7fffff            1003f86c     RTreeCooking.obj
 0002:00001870       __real@ff7fffff            1003f870     RTreeCooking.obj
 0002:00001880       __xmm@41f00000000000000000000000000000 1003f880     RTreeCooking.obj
 0002:000018d0       ??_C@_0HI@JMEBBIKA@C?3?2Users?2Eloi?2Documents?2MASTER?2P@ 1003f8d0     TriangleMeshBuilder.obj
 0002:00001960       ??_C@_0O@JEHCGDAJ@value?$DM?$DN0xffff?$AA@ 1003f960     TriangleMeshBuilder.obj
 0002:00001970       ??_C@_0DD@CMJGDCNN@TriangleMesh?3?3loadFromDesc?3?5desc@ 1003f970     TriangleMeshBuilder.obj
 0002:000019b0       ??_C@_0DE@NHIHKD@?4?4?2?4?4?2PhysXCooking?2src?2mesh?2Tria@ 1003f9b0     TriangleMeshBuilder.obj
 0002:000019f0       ??_C@_0FB@HKCCNMI@PxCookingParams?3?3meshSizePerform@ 1003f9f0     TriangleMeshBuilder.obj
 0002:00001a54       ??_C@_0CK@BJFFGDPK@input?5mesh?5contains?5corrupted?5ve@ 1003fa54     TriangleMeshBuilder.obj
 0002:00001a88       ??_C@_0BF@DKJOKPOK@materials?$FLi?$FN?$CB?$DN0xffff?$AA@ 1003fa88     TriangleMeshBuilder.obj
 0002:00001aa4       ??_C@_0BJ@BKHDBBHO@cleaning?5the?5mesh?5failed?$AA@ 1003faa4     TriangleMeshBuilder.obj
 0002:00001ac4       ??_C@_0BM@OIFKLHDN@?$DMallocation?5names?5disabled?$DO?$AA@ 1003fac4     TriangleMeshBuilder.obj
 0002:00001ae8       __real@40000000            1003fae8     TriangleMeshBuilder.obj
 0002:00001aec       __real@c1b00000            1003faec     TriangleMeshBuilder.obj
 0002:00001af8       ??_C@_0HI@LJPFNLBE@c?3?2users?2eloi?2documents?2master?2p@ 1003faf8     BigConvexDataBuilder.obj
 0002:00001b88       ??_C@_0DH@IKCMPFPC@?4?4?2?4?4?2PhysXCooking?2src?2convex?2Bi@ 1003fb88     BigConvexDataBuilder.obj
 0002:00001bcc       ??_C@_0BO@MNGACMON@Offset?$DMmSVM?9?$DOmData?4mNbSamples?$AA@ 1003fbcc     BigConvexDataBuilder.obj
 0002:00001bf0       ??_C@_0DK@ODHGGDEO@mSVM?9?$DOmData?4mValencies?$FLEL?4GetEdg@ 1003fbf0     BigConvexDataBuilder.obj
 0002:00001c38       ??_C@_0DK@MCENFKP@mSVM?9?$DOmData?4mValencies?$FLEL?4GetEdg@ 1003fc38     BigConvexDataBuilder.obj
 0002:00001c80       ??_C@_0CL@MLDMBJDO@mSVM?9?$DOmData?4mNbAdjVerts?$DN?$DNEL?4GetN@ 1003fc80     BigConvexDataBuilder.obj
 0002:00001cb4       ??_C@_08KEAKIBKP@Ref0?$DM256?$AA@ 1003fcb4     BigConvexDataBuilder.obj
 0002:00001cc0       ??_C@_08GPFGFCAK@Ref1?$DM256?$AA@ 1003fcc0     BigConvexDataBuilder.obj
 0002:00001ccc       __real@3dcccccd            1003fccc     BigConvexDataBuilder.obj
 0002:00001cd0       __real@3f000000            1003fcd0     BigConvexDataBuilder.obj
 0002:00001cd4       __real@bf800000            1003fcd4     BigConvexDataBuilder.obj
 0002:00001ce0       __xmm@80000000800000008000000080000000 1003fce0     BigConvexDataBuilder.obj
 0002:00001cf8       ??_C@_0M@JAJDAINE@value?$DM?$DN0xff?$AA@ 1003fcf8     ConvexHullBuilder.obj
 0002:00001d08       ??_C@_0DE@JCGJGFMG@?4?4?2?4?4?2PhysXCooking?2src?2convex?2Co@ 1003fd08     ConvexHullBuilder.obj
 0002:00001d48       ??_C@_0BH@JIHLJCIJ@Copy?4GetNbEntries?$CI?$CJ?$DO?$DN4?$AA@ 1003fd48     ConvexHullBuilder.obj
 0002:00001d64       ??_C@_0BH@MOCBDFAP@Copy?4GetNbEntries?$CI?$CJ?$DO?$DN2?$AA@ 1003fd64     ConvexHullBuilder.obj
 0002:00001d80       ??_C@_0L@MBANLGDP@NbVerts?$DO?$DN3?$AA@ 1003fd80     ConvexHullBuilder.obj
 0002:00001d90       ??_C@_0BB@EBIJDKIN@WFaces?5?$HM?$HM?5DFaces?$AA@ 1003fd90     ConvexHullBuilder.obj
 0002:00001da4       ??_C@_0BM@OKKJIAKB@Entries?$FL0?$FN?5?$DN?$DN?5Entries?$FLNb?91?$FN?$AA@ 1003fda4     ConvexHullBuilder.obj
 0002:00001dc8       ??_C@_0DP@KFEAHANP@Meshmerizer?3?3ExtractHullPolygons@ 1003fdc8     ConvexHullBuilder.obj
 0002:00001e14       ??_C@_06KDGGGLIJ@PxVec3?$AA@ 1003fe14     ConvexHullBuilder.obj
 0002:00001e1c       ??_C@_0BH@CCGEFODL@indices?$FLi?$CK3?$CL0?$FN?$DM?$DN0xffff?$AA@ 1003fe1c     ConvexHullBuilder.obj
 0002:00001e38       ??_C@_0BH@ODOKIBPL@indices?$FLi?$CK3?$CL1?$FN?$DM?$DN0xffff?$AA@ 1003fe38     ConvexHullBuilder.obj
 0002:00001e54       ??_C@_0BH@HKAIOHPK@indices?$FLi?$CK3?$CL2?$FN?$DM?$DN0xffff?$AA@ 1003fe54     ConvexHullBuilder.obj
 0002:00001e70       ??_C@_0EB@MLICBFEL@ConvexHullBuilder?3?3Init?3?5convex?5@ 1003fe70     ConvexHullBuilder.obj
 0002:00001ec0       ??_C@_0BE@KOOOMNLC@Gu?3?3HullPolygonData?$AA@ 1003fec0     ConvexHullBuilder.obj
 0002:00001ed8       ??_C@_0BA@OMHMECP@nbHullVerts?$DM256?$AA@ 1003fed8     ConvexHullBuilder.obj
 0002:00001ef0       ??_C@_0GF@OJLJHAMH@ConvexHullBuilder?3?3CreateTriangl@ 1003fef0     ConvexHullBuilder.obj
 0002:00001f6c       ??_C@_0BO@KFMAHGLJ@NbTriangles?5?$DM?$DN?5MaxNbTriangles?$AA@ 1003ff6c     ConvexHullBuilder.obj
 0002:00001f90       ??_C@_0DM@LLCHBGLA@Hull?5check?5failed?$CB?5Please?5report@ 1003ff90     ConvexHullBuilder.obj
 0002:00001fd8       ??_C@_0FO@PFKGIEJ@Hull?5check?5failed?$CB?5Hull?5seems?5to@ 1003ffd8     ConvexHullBuilder.obj
 0002:00002048       ??_C@_0BL@MFNKFFFN@Reduced?5vertices?5hull?5data?$AA@ 10040048     ConvexHullBuilder.obj
 0002:00002068       ??_C@_0CK@GNGILODA@currentIndex?5?$DM?5numReducedHullDat@ 10040068     ConvexHullBuilder.obj
 0002:0000209c       ??_C@_0CB@CGNHHAGO@Data?$FLj?$FN?5?$DM?5mHull?9?$DOmNbHullVertices@ 1004009c     ConvexHullBuilder.obj
 0002:000020c4       ??_C@_0DL@IAFKOCCK@ConvexHullBuilder?3?5convex?5hull?5h@ 100400c4     ConvexHullBuilder.obj
 0002:0000210c       ??_C@_0BG@GPCBPFAF@TriIndex?$DMmNbHullFaces?$AA@ 1004010c     ConvexHullBuilder.obj
 0002:00002128       ??_C@_0CP@JLCGBLDE@PL?4n?4dot?$CImHullDataPolygons?$FLi?$FN?4mP@ 10040128     ConvexHullBuilder.obj
 0002:00002160       ??_C@_0DH@FPEAADNN@mHullDataPolygons?$FLi?$FN?4mPlane?4dist@ 10040160     ConvexHullBuilder.obj
 0002:000021a4       ??_C@_09PNPFALML@triangles?$AA@ 100401a4     ConvexHullBuilder.obj
 0002:000021b0       ??_C@_05FEEIMKBD@verts?$AA@ 100401b0     ConvexHullBuilder.obj
 0002:000021b8       ??_C@_0BJ@CIDDLGFP@triangles?$FLi?$CK3?$CL0?$FN?$DM?$DN0xffff?$AA@ 100401b8     ConvexHullBuilder.obj
 0002:000021d8       ??_C@_0BJ@OJLNGJJP@triangles?$FLi?$CK3?$CL1?$FN?$DM?$DN0xffff?$AA@ 100401d8     ConvexHullBuilder.obj
 0002:000021f8       ??_C@_0BJ@HAFPAPJO@triangles?$FLi?$CK3?$CL2?$FN?$DM?$DN0xffff?$AA@ 100401f8     ConvexHullBuilder.obj
 0002:00002218       ??_C@_0HF@OLJFBIEL@ConvexHullBuilder?3?5convex?5hull?5d@ 10040218     ConvexHullBuilder.obj
 0002:000022a8       ??_C@_0OG@JNHFOIL@ConvexHullBuilder?3?5convex?5hull?5d@ 100402a8     ConvexHullBuilder.obj
 0002:000023bc       ??_C@_0CG@BKAJAIFF@?$CIPxU32?$CJ?$CIRun0?9VRefs0?$CJ?$DN?$DNNbEdgesUns@ 100403bc     ConvexHullBuilder.obj
 0002:000023ec       ??_C@_0CG@BBOCCIFC@?$CIPxU32?$CJ?$CIRun1?9VRefs1?$CJ?$DN?$DNNbEdgesUns@ 100403ec     ConvexHullBuilder.obj
 0002:00002420       ??_C@_0EJ@NIOIBAKH@Cooking?3?3cookConvexMesh?3?5non?9man@ 10040420     ConvexHullBuilder.obj
 0002:00002478       ??_C@_0BC@JILNBNOE@mHullDataPolygons?$AA@ 10040478     ConvexHullBuilder.obj
 0002:00002490       __real@3ba3d70a            10040490     ConvexHullBuilder.obj
 0002:00002494       __real@3ca3d70a            10040494     ConvexHullBuilder.obj
 0002:00002498       __real@3eaaaaab            10040498     ConvexHullBuilder.obj
 0002:000024cc       ??_7ConvexMeshBuilder@physx@@6BPxConvexMesh@1@@ 100404cc     ConvexMeshBuilder.obj
 0002:00002514       ??_7ConvexMeshBuilder@physx@@6BRefCountable@Cm@1@@ 10040514     ConvexMeshBuilder.obj
 0002:00002520       ??_C@_0HC@IOAKNHBM@C?3?2Users?2Eloi?2Documents?2MASTER?2P@ 10040520     ConvexMeshBuilder.obj
 0002:000025a8       ??_C@_0DM@DFBCLLPG@Unexpected?5platform?5in?5PxGetGaus@ 100405a8     ConvexMeshBuilder.obj
 0002:000025f0       ??_C@_0DF@LLFJIJGM@Gu?3?3ConvexMesh?3?3loadFromDesc?3?5de@ 100405f0     ConvexMeshBuilder.obj
 0002:00002630       ??_C@_0DE@FMMNMFJD@?4?4?2?4?4?2PhysXCooking?2src?2convex?2Co@ 10040630     ConvexMeshBuilder.obj
 0002:00002670       ??_C@_0HK@JOGKIEAA@Gu?3?3ConvexMesh?3?5Mesh?5has?5a?5negat@ 10040670     ConvexMeshBuilder.obj
 0002:00002704       ??_C@_0DH@NJPPHFFD@Gu?3?3ConvexMesh?3?5Error?5computing?5@ 10040704     ConvexMeshBuilder.obj
 0002:00002748       ??_C@_0DJ@LJDLGLDJ@Gu?3?3ConvexMesh?3?3loadConvexHull?3?5@ 10040748     ConvexMeshBuilder.obj
 0002:00002790       ??_C@_0JC@IEAFEIFE@Gu?3?3ConvexMesh?3?3loadConvexHull?3?5@ 10040790     ConvexMeshBuilder.obj
 0002:00002840       ??_C@_0HJ@KJANPPOE@ConvexMeshBuilder?3?3computeHullPo@ 10040840     ConvexMeshBuilder.obj
 0002:000028d4       ??_C@_05LMJPANIN@PxU32?$AA@ 100408d4     ConvexMeshBuilder.obj
 0002:000028dc       ??_C@_0O@JMAGMMGG@PxHullPolygon?$AA@ 100408dc     ConvexMeshBuilder.obj
 0002:000028f0       ??_C@_0FN@IODHNLIE@indices?$FLoutPolygon?4mIndexBase?5?$CL?5@ 100408f0     ConvexMeshBuilder.obj
 0002:00002960       __real@0000000000000000    10040960     ConvexMeshBuilder.obj
 0002:0000296c       __real@40400000            1004096c     ConvexMeshBuilder.obj
 0002:00002970       __real@44800000            10040970     ConvexMeshBuilder.obj
 0002:00002980       __xmm@80000000000000008000000000000000 10040980     ConvexMeshBuilder.obj
 0002:00002998       ??_C@_01GBGANLPD@0?$AA@    10040998     hulllib.obj
 0002:0000299c       ??_C@_0CK@LEJAGBKE@?4?4?2?4?4?2PhysXCooking?2src?2convex?2hu@ 1004099c     hulllib.obj
 0002:000029d0       ??_C@_09GBJPLNEP@i?$DO?$DN0?$CG?$CGi?$DM3?$AA@ 100409d0     hulllib.obj
 0002:000029dc       ??_C@_0BM@FNPIOFJJ@Cant?5normalize?5ZERO?5vector?6?$AA@ 100409dc     hulllib.obj
 0002:00002a00       ??_C@_04LOBEFBAE@d?$CB?$DN0?$AA@ 10040a00     hulllib.obj
 0002:00002a08       ??_C@_0CL@GOMAOONC@convex?4edges?$FLinext?$FN?4p?5?$DN?$DN?5convex?4@ 10040a08     hulllib.obj
 0002:00002a3c       ??_C@_07MGHLAJA@nb?$CB?$DN255?$AA@ 10040a3c     hulllib.obj
 0002:00002a48       ??_C@_06PEAOENKB@nb?$CB?$DN?91?$AA@ 10040a48     hulllib.obj
 0002:00002a50       ??_C@_0BI@IJHHMEEF@i?$DN?$DN?5convex?4edges?$FLnb?$FN?4ea?$AA@ 10040a50     hulllib.obj
 0002:00002a6c       ??_C@_0CM@CCMBNEHJ@convex?4edges?$FLnb?$FN?4v?5?$DN?$DN?5convex?4edg@ 10040a6c     hulllib.obj
 0002:00002aa0       ??_C@_0FJ@LMIAKMAH@COPLANAR?$DN?$DNPlaneTest?$CIconvex?4facet@ 10040aa0     hulllib.obj
 0002:00002b0c       ??_C@_0BH@HDOPHOOH@convex?4edges?4count?$DM480?$AA@ 10040b0c     hulllib.obj
 0002:00002b28       ??_C@_0DC@LKDJNPEO@tmpunderedges?$FLunder_edge_count?$FN?4@ 10040b28     hulllib.obj
 0002:00002b64       ??_C@_0CM@OAAPMFDL@edgeflag?$FLedge0?4ea?$FN?4undermap?5?$CB?$DN?5i@ 10040b64     hulllib.obj
 0002:00002b98       ??_C@_0BF@KEHLOIPL@vout?5?$CB?$DN?5invalidIndex?$AA@ 10040b98     hulllib.obj
 0002:00002bb4       ??_C@_0BF@GLPJAAKL@vin?5?$DM?5vertcountunder?$AA@ 10040bb4     hulllib.obj
 0002:00002bd0       ??_C@_0CK@KJLDNOON@edgeflag?$FLe0?$FN?4undermap?5?$DN?$DN?5under_e@ 10040bd0     hulllib.obj
 0002:00002c04       ??_C@_0BE@ODINDNNF@vin?5?$CB?$DN?5invalidIndex?$AA@ 10040c04     hulllib.obj
 0002:00002c1c       ??_C@_0BE@DMLEFGJP@coplanaredge?5?$CB?$DN?5511?$AA@ 10040c1c     hulllib.obj
 0002:00002c34       ??_C@_0BG@BFEJMJAI@i?$DN?$DNcreatedverts?4count?$AA@ 10040c34     hulllib.obj
 0002:00002c50       ??_C@_0BH@NJJCMLHB@?$CI?$CKmTris?$CJ?$FLtri?9?$DOid?$FN?$DN?$DNtri?$AA@ 10040c50     hulllib.obj
 0002:00002c6c       ??_C@_0M@MKOGDFGO@Array?$DMTri?$CK?$DO?$AA@ 10040c6c     hulllib.obj
 0002:00002c7c       ??_C@_0CL@EFAEFND@?$CI?$CKmTris?$CJ?$FLs?9?$DOneib?$CIa?0b?$CJ?$FN?9?$DOneib?$CIb?0a@ 10040c7c     hulllib.obj
 0002:00002cb0       ??_C@_0CL@OGNKMCOJ@?$CI?$CKmTris?$CJ?$FLt?9?$DOneib?$CIa?0b?$CJ?$FN?9?$DOneib?$CIb?0a@ 10040cb0     hulllib.obj
 0002:00002ce4       ??_C@_0BD@FJHIEEEC@?$CI?$CKmTris?$CJ?$FLt?9?$DOid?$FN?$DN?$DNt?$AA@ 10040ce4     hulllib.obj
 0002:00002cfc       ??_C@_04POHJOBKC@a?$CB?$DNb?$AA@ 10040cfc     hulllib.obj
 0002:00002d04       ??_C@_0CG@CFKMADHO@?$CI?$CKmTris?$CJ?$FLt?9?$DOn?$FLi?$FN?$FN?9?$DOneib?$CIb?0a?$CJ?5?$DN?$DN?5@ 10040d04     hulllib.obj
 0002:00002d34       ??_C@_0DC@OMACIGCJ@?$CB?$CIp0?$DN?$DNp1?$HM?$HMp0?$DN?$DNp2?$HM?$HMp0?$DN?$DNp3?$HM?$HMp1?$DN?$DNp2@ 10040d34     hulllib.obj
 0002:00002d70       ??_C@_01PFHFFBPC@t?$AA@    10040d70     hulllib.obj
 0002:00002d74       ??_C@_09MDBCJDMM@t?9?$DOvmax?$DM0?$AA@ 10040d74     hulllib.obj
 0002:00002d80       ??_C@_0O@FMOJFPKF@?$CBisextreme?$FLv?$FN?$AA@ 10040d80     hulllib.obj
 0002:00002d90       ??_C@_02BFDMMJOC@nb?$AA@   10040d90     hulllib.obj
 0002:00002d94       ??_C@_0BA@OKMDLOJM@?$CBhasvert?$CI?$CKnb?0v?$CJ?$AA@ 10040d94     hulllib.obj
 0002:00002da8       ??_C@_08BNIGMCJB@nb?9?$DOid?$DMj?$AA@ 10040da8     hulllib.obj
 0002:00002db4       ??_C@_0CA@HIOFHKC@expandPlane?4mAdjacency?$FL0?$FN?5?$DN?$DN?5?91?$AA@ 10040db4     hulllib.obj
 0002:00002ddc       ??_C@_0CA@BAPFEDOB@expandPlane?4mAdjacency?$FL1?$FN?5?$DN?$DN?5?91?$AA@ 10040ddc     hulllib.obj
 0002:00002e04       ??_C@_0CA@CJHIHPCE@expandPlane?4mAdjacency?$FL2?$FN?5?$DN?$DN?5?91?$AA@ 10040e04     hulllib.obj
 0002:00002e2c       ??_C@_0DB@MDKGLJDK@LocalTests?3?3PlaneCheck?$CIverts?0ver@ 10040e2c     hulllib.obj
 0002:00002e68       ??_C@_0N@EJENLPBA@indexE?5?$CB?$DN?5?91?$AA@ 10040e68     hulllib.obj
 0002:00002e78       ??_C@_0CM@DGNHBGHH@expandPlane?4mPlane?4distance?$CIvert@ 10040e78     hulllib.obj
 0002:00002eac       ??_C@_0BA@LLAJEKFE@n?$CB?$DNREAL3?$CI0?00?00?$CJ?$AA@ 10040eac     hulllib.obj
 0002:00002ec0       ??_C@_0BB@DBMEHMDM@AssertIntact?$CI?$CKc?$CJ?$AA@ 10040ec0     hulllib.obj
 0002:00002ed4       ??_C@_03JBIPMCLC@int?$AA@  10040ed4     hulllib.obj
 0002:00002ed8       ??_C@_0BD@HIHDLLJJ@k?$DN?$DNc?9?$DOfacets?4count?$AA@ 10040ed8     hulllib.obj
 0002:00002ef0       ??_C@_0DE@GBNKIAOM@faces_count_out?5?$DN?$DN?51?$CLc?9?$DOfacets?4c@ 10040ef0     hulllib.obj
 0002:00002f30       ??_C@_0CC@MLOMFAJG@tris?4count?5?$DN?$DN?5index_count?91?9?$CIn?$CK3@ 10040f30     hulllib.obj
 0002:00002f58       ??_C@_0L@LDIAPGOM@v?5?$DM?5vcount?$AA@ 10040f58     hulllib.obj
 0002:00002f68       ??_C@_0BB@KFMHLOGC@ocount?5?$DM?$DN?5vcount?$AA@ 10040f68     hulllib.obj
 0002:00002f7c       ??_C@_05KNFBNCOH@float?$AA@ 10040f7c     hulllib.obj
 0002:00002f88       ??_C@_0HO@CPAEELAK@c?3?2users?2eloi?2documents?2master?2p@ 10040f88     hulllib.obj
 0002:00003020       ??_C@_0BA@BLMLNLGH@i?$DO?$DN0?5?$CG?$CG?5i?$DMcount?$AA@ 10041020     hulllib.obj
 0002:00003034       ??_C@_0BC@FCFAAFKB@count?$DM?$DNarray_size?$AA@ 10041034     hulllib.obj
 0002:0000304c       ??_C@_05IOMEMJEC@count?$AA@ 1004104c     hulllib.obj
 0002:00003054       ??_C@_03FGICNBPI@s?$DO0?$AA@ 10041054     hulllib.obj
 0002:00003058       ??_C@_08EJNCAGIC@s?$DO?$DNcount?$AA@ 10041058     hulllib.obj
 0002:00003064       ??_C@_0BC@JDJGKIHB@hull?5array?5memory?$AA@ 10041064     hulllib.obj
 0002:0000307c       ??_C@_0BL@HNGPFBEI@element?5?$CG?$CG?5?$CI?$CBcount?5?$HM?$HM?5old?$CJ?$AA@ 1004107c     hulllib.obj
 0002:0000309c       ??_C@_05PCHPLGBB@m?$CB?$DN?91?$AA@ 1004109c     hulllib.obj
 0002:000030a4       __real@1e3ce508            100410a4     hulllib.obj
 0002:000030a8       __real@358637bd            100410a8     hulllib.obj
 0002:000030ac       __real@3c23d70a            100410ac     hulllib.obj
 0002:000030b0       __real@3c8efa35            100410b0     hulllib.obj
 0002:000030b4       __real@3ccccccd            100410b4     hulllib.obj
 0002:000030b8       __real@3d4ccccd            100410b8     hulllib.obj
 0002:000030bc       __real@3e800000            100410bc     hulllib.obj
 0002:000030c0       __real@40800000            100410c0     hulllib.obj
 0002:000030c4       __real@40a00000            100410c4     hulllib.obj
 0002:000030c8       __real@42340000            100410c8     hulllib.obj
 0002:000030cc       __real@42f00000            100410cc     hulllib.obj
 0002:000030d0       __real@43b40000            100410d0     hulllib.obj
 0002:000030d4       __real@9e3ce508            100410d4     hulllib.obj
 0002:000030d8       __real@bc23d70a            100410d8     hulllib.obj
 0002:000030dc       __real@bca3d70a            100410dc     hulllib.obj
 0002:000030e8       ??_C@_0GM@MCHACCGP@C?3?2Users?2Eloi?2Documents?2MASTER?2P@ 100410e8     VolumeIntegration.obj
 0002:00003170       __real@3f81111111111111    10041170     VolumeIntegration.obj
 0002:00003180       __real@3f91111111111111    10041180     VolumeIntegration.obj
 0002:00003190       __real@3fa5555555555555    10041190     VolumeIntegration.obj
 0002:000031a0       __real@3fc5555555555555    100411a0     VolumeIntegration.obj
 0002:000031b0       __real@3ff0000000000000    100411b0     VolumeIntegration.obj
 0002:000031c0       __real@4000000000000000    100411c0     VolumeIntegration.obj
 0002:000031d0       __real@4008000000000000    100411d0     VolumeIntegration.obj
 0002:000031e0       __real@4010000000000000    100411e0     VolumeIntegration.obj
 0002:000031f0       __real@4018000000000000    100411f0     VolumeIntegration.obj
 0002:00003200       __real@4028000000000000    10041200     VolumeIntegration.obj
 0002:00003210       __real@4034000000000000    10041210     VolumeIntegration.obj
 0002:00003220       __real@4038000000000000    10041220     VolumeIntegration.obj
 0002:00003230       __real@404e000000000000    10041230     VolumeIntegration.obj
 0002:00003240       __real@c018000000000000    10041240     VolumeIntegration.obj
 0002:00003250       __real@c028000000000000    10041250     VolumeIntegration.obj
 0002:00003260       __real@c034000000000000    10041260     VolumeIntegration.obj
 0002:00003270       __real@c04e000000000000    10041270     VolumeIntegration.obj
 0002:0000327c       ??_C@_0DC@DMHHONHL@Adjacencies?3?3GetBoundaryVertices@ 1004127c     Adjacencies.obj
 0002:000032b8       ??_C@_0CH@EOBHIJNK@?4?4?2?4?4?2PhysXCooking?2src?2Adjacenci@ 100412b8     Adjacencies.obj
 0002:000032e8       ??_C@_0CK@KKNAOLHI@Adjacencies?3?3MakeLastRef?3?5NULL?5p@ 100412e8     Adjacencies.obj
 0002:0000331c       ??_C@_04DDKJGDCM@bool?$AA@ 1004131c     Adjacencies.obj
 0002:00003324       ??_C@_0DA@FMEHLBKI@Adjacencies?3?3UpdateLink?3?5invalid@ 10041324     Adjacencies.obj
 0002:00003360       ??_C@_0JJ@BJLNDJKO@Adjacencies?3?3CreateDatabase?3?5can@ 10041360     Adjacencies.obj
 0002:00003418       ??_C@_0BE@LIEIDFLP@NbEdges?$DN?$DNmNbFaces?$CK3?$AA@ 10041418     Adjacencies.obj
 0002:00003430       ??_C@_0JH@OAGDEHEP@?$CIGu?3?3EdgeTriangleAC?3?3HasActiveEd@ 10041430     Adjacencies.obj
 0002:000034e8       ??_C@_0JH@GOIKPHAD@?$CIGu?3?3EdgeTriangleAC?3?3HasActiveEd@ 100414e8     Adjacencies.obj
 0002:000035a0       ??_C@_0JH@OMLLOEFP@?$CIGu?3?3EdgeTriangleAC?3?3HasActiveEd@ 100415a0     Adjacencies.obj
 0002:0000365c       ??_7PxCooking@physx@@6B@   1004165c     Cooking.obj
 0002:00003698       ??_7Cooking@physx@@6B@     10041698     Cooking.obj
 0002:000036d4       ??_7TriangleMeshBuilder@physx@@6BPxTriangleMesh@1@@ 100416d4     Cooking.obj
 0002:00003720       ??_7TriangleMeshBuilder@physx@@6BRefCountable@Cm@1@@ 10041720     Cooking.obj
 0002:0000372c       ??_C@_0CD@HPMFPCAJ@?4?4?2?4?4?2PhysXCooking?2src?2Cooking?4c@ 1004172c     Cooking.obj
 0002:00003758       ??_C@_0FC@PJIHAFK@Cooking?3?3validateTriangleMesh?3?5u@ 10041758     Cooking.obj
 0002:000037c0       ??_C@_0GF@KBACGOEB@PxTriangleMeshDesc?3?3convexEdgeTh@ 100417c0     Cooking.obj
 0002:00003840       ??_C@_0FF@FCKBBOBA@Cooking?3?3cook?1createTriangleMesh@ 10041840     Cooking.obj
 0002:000038a8       ??_C@_0EK@EKAIJEBL@Cooking?3?3cookConvexMesh?3?5user?9pr@ 100418a8     Cooking.obj
 0002:00003900       ??_C@_0EJ@EIMOEGKB@Cooking?3?3cookConvexMesh?3?5user?9pr@ 10041900     Cooking.obj
 0002:00003958       ??_C@_0EP@CKACPLJK@Cooking?3?3cookConvexMesh?3?5user?9pr@ 10041958     Cooking.obj
 0002:000039b8       ??_C@_0EO@LKFMMDE@Cooking?3?3cookConvexMesh?3?5user?9pr@ 100419b8     Cooking.obj
 0002:00003a18       ??_C@_0EN@FCEPCAFC@Cooking?3?3createHeightField?3?5user@ 10041a18     Cooking.obj
 0002:00003a78       ??_C@_0EM@MHLLDEBI@static_cast?$DMPs?3?3Foundation?$CK?$DO?$CI?$CGfo@ 10041a78     Cooking.obj
 0002:00003ad4       ??_C@_0CI@LKCEKHOD@?4?4?2?4?4?2PhysXCooking?2src?2CookingUt@ 10041ad4     CookingUtils.obj
 0002:00003b08       ??_C@_0N@OOPDCJAN@Gu?3?3EdgeData?$AA@ 10041b08     EdgeList.obj
 0002:00003b18       ??_C@_0CE@DNAJJHLF@?4?4?2?4?4?2PhysXCooking?2src?2EdgeList?4@ 10041b18     EdgeList.obj
 0002:00003b44       ??_C@_0BF@DEHGNEOE@Gu?3?3EdgeTriangleData?$AA@ 10041b44     EdgeList.obj
 0002:00003b60       ??_C@_0BB@LAAHLNEJ@Gu?3?3EdgeDescData?$AA@ 10041b60     EdgeList.obj
 0002:00003b74       ??_C@_0BK@BJFOKFDB@Gu?3?3EdgeList?5FacesByEdges?$AA@ 10041b74     EdgeList.obj
 0002:00003b94       ??_C@_0CO@GBNJFPN@EdgeList?3?3CreateFacesToEdges?3?5NU@ 10041b94     EdgeList.obj
 0002:00003bcc       ??_C@_0CB@OPJNLGEO@Gu?3?3EdgeListBuilder?5FacesByEdges@ 10041bcc     EdgeList.obj
 0002:00003bf4       ??_C@_0CO@EHJBBMNK@EdgeList?3?3ComputeActiveEdges?3?5NU@ 10041bf4     EdgeList.obj
 0002:00003c2c       ??_C@_0DI@GBHLFOFP@ActiveEdges?3?3ComputeConvexEdges?3@ 10041c2c     EdgeList.obj
 0002:00003c70       ??_C@_0DM@JOGBLHDI@ActiveEdges?3?3ComputeConvexEdges?3@ 10041c70     EdgeList.obj
 0002:00003cb8       ??_C@_0ED@FEMJKPEL@ActiveEdges?3?3ComputeConvexEdges?3@ 10041cb8     EdgeList.obj
 0002:00003d08       ??_C@_0EB@BFDPMFCD@ActiveEdges?3?3ComputeConvexEdges?3@ 10041d08     EdgeList.obj
 0002:00003d58       ??_C@_06FCDOAHIN@wfaces?$AA@ 10041d58     EdgeList.obj
 0002:00003d60       ??_C@_0BB@KCPJALAK@dfaces?5?$HM?$HM?5wfaces?$AA@ 10041d60     EdgeList.obj
 0002:00003d74       ??_C@_04CJNNGFMA@j?$DN?$DN2?$AA@ 10041d74     EdgeList.obj
 0002:00003d7c       __real@bf7fbe77            10041d7c     EdgeList.obj
 0002:00003d88       ??_C@_0HE@KBICNOJL@C?3?2Users?2Eloi?2Documents?2MASTER?2P@ 10041d88     InternalTriangleMeshBuilder.obj
 0002:00003e14       ??_C@_0P@JLLGKKGO@nb?$DO0?5?$CG?$CG?5nb?$DM?$DN16?$AA@ 10041e14     InternalTriangleMeshBuilder.obj
 0002:00003e28       ??_C@_0BA@IGNEICFC@index?5?$DM?5?$CI1?$DM?$DM27?$CJ?$AA@ 10041e28     InternalTriangleMeshBuilder.obj
 0002:00003e3c       ??_7RemapCallback@RTreeCooker@physx@@6B@ 10041e3c     InternalTriangleMeshBuilder.obj
 0002:00003e48       ??_C@_0DH@KAAPMABG@?4?4?2?4?4?2PhysXCooking?2src?2InternalT@ 10041e48     InternalTriangleMeshBuilder.obj
 0002:00003e8c       ??_C@_04KPBEILIJ@mesh?$AA@ 10041e8c     InternalTriangleMeshBuilder.obj
 0002:00003e94       ??_C@_0BF@CCKBOJFO@Gu?3?3TriangleT?$DMPxU32?$DO?$AA@ 10041e94     InternalTriangleMeshBuilder.obj
 0002:00003eb0       ??_7RTreeCookerRemap@@6B@  10041eb0     InternalTriangleMeshBuilder.obj
 0002:00003ebc       ??_C@_0O@PPMFEIKF@leafCount?5?$DO?50?$AA@ 10041ebc     InternalTriangleMeshBuilder.obj
 0002:00003ecc       ??_C@_0BA@ICGDMFLO@leafCount?5?$DM?$DN?516?$AA@ 10041ecc     InternalTriangleMeshBuilder.obj
 0002:00003ee0       ??_C@_0BB@CBEMBEIL@start?5?$DM?5mNumTris?$AA@ 10041ee0     InternalTriangleMeshBuilder.obj
 0002:00003ef4       ??_C@_0BM@PKJGHNOI@start?$CLleafCount?5?$DM?$DN?5mNumTris?$AA@ 10041ef4     InternalTriangleMeshBuilder.obj
 0002:00003f18       ??_C@_03BALCFKBP@val?$AA@  10041f18     InternalTriangleMeshBuilder.obj
 0002:00003f1c       ??_C@_0CO@CFBGFAJE@resultPermute?4size?$CI?$CJ?5?$DN?$DN?5triData?4@ 10041f1c     InternalTriangleMeshBuilder.obj
 0002:00003f54       ??_C@_0DJ@IGODLHLP@TriangleMesh?3?5Enable?5mesh?5weldin@ 10041f54     InternalTriangleMeshBuilder.obj
 0002:00003f98       ??_C@_0EB@FMFFAHEN@?$CB?$CIdata?4mFlags?5?$CG?5PxTriangleMeshFl@ 10041f98     InternalTriangleMeshBuilder.obj
 0002:00003fe8       ??_C@_0CN@PJHOIFC@vref0?$CB?$DNvref1?5?$CG?$CG?5vref0?$CB?$DNvref2?5?$CG?$CG?5@ 10041fe8     InternalTriangleMeshBuilder.obj
 0002:00004020       ??_C@_0FJ@HHJLKGDF@TriangleMesh?3?5triangles?5are?5too?5@ 10042020     InternalTriangleMeshBuilder.obj
 0002:0000408c       ??_C@_0CN@KGPHHHLK@TriangleMesh?3?5mesh?5is?5too?5big?5fo@ 1004208c     InternalTriangleMeshBuilder.obj
 0002:000040c4       ??_C@_0DA@ICJBFKFL@edgeList?9?$DOGetNbFaces?$CI?$CJ?$DN?$DNmesh?9?$DOge@ 100420c4     InternalTriangleMeshBuilder.obj
 0002:00004100       ??_C@_0NB@DAHFAAHF@?$CIGu?3?3EdgeTriangleAC?3?3HasActiveEd@ 10042100     InternalTriangleMeshBuilder.obj
 0002:00004200       ??_C@_0NB@JJBLOIPF@?$CIGu?3?3EdgeTriangleAC?3?3HasActiveEd@ 10042200     InternalTriangleMeshBuilder.obj
 0002:00004300       ??_C@_0NB@EBGLPJFF@?$CIGu?3?3EdgeTriangleAC?3?3HasActiveEd@ 10042300     InternalTriangleMeshBuilder.obj
 0002:000043fc       __real@48742400            100423fc     InternalTriangleMeshBuilder.obj
 0002:00004400       ??_C@_0M@GOCDBJNH@MeshCleaner?$AA@ 10042400     MeshCleaner.obj
 0002:00004410       ??_C@_0CH@GLEMKEIO@?4?4?2?4?4?2PhysXCooking?2src?2MeshClean@ 10042410     MeshCleaner.obj
 0002:00004440       ??_C@_0L@FKHAJINL@cleanVerts?$AA@ 10042440     MeshCleaner.obj
 0002:00004450       ??_C@_09PEPOFECJ@hashTable?$AA@ 10042450     MeshCleaner.obj
 0002:0000445c       ??_C@_0BB@EKDFPEDB@nbCleanedTris?$DM?$DNi?$AA@ 1004245c     MeshCleaner.obj
 0002:00004470       __sz_PhysX3CommonDEBUG_x86_dll 10042470     PhysX3CommonDEBUG_x86:PhysX3CommonDEBUG_x86.dll
 0002:00004512       ?value@?$integral_constant@_N$0A@@std@@2_NB 10042512     MSVCRTD:tncleanup.obj
 0002:00004513       ?value@?$integral_constant@_N$00@std@@2_NB 10042513     MSVCRTD:tncleanup.obj
 0002:00004514       ?ProcessDetach@NativeDll@<CrtImplementationDetails>@@0IB 10042514     MSVCRTD:tncleanup.obj
 0002:00004518       ?ProcessAttach@NativeDll@<CrtImplementationDetails>@@0IB 10042518     MSVCRTD:tncleanup.obj
 0002:0000451c       ?ThreadAttach@NativeDll@<CrtImplementationDetails>@@0IB 1004251c     MSVCRTD:tncleanup.obj
 0002:00004520       ?ThreadDetach@NativeDll@<CrtImplementationDetails>@@0IB 10042520     MSVCRTD:tncleanup.obj
 0002:00004524       ?ProcessVerifier@NativeDll@<CrtImplementationDetails>@@0IB 10042524     MSVCRTD:tncleanup.obj
 0002:0000452c       ??_7type_info@@6B@         1004252c     MSVCRTD:ti_inst.obj
 0002:00004530       __pDefaultRawDllMain       10042530     MSVCRTD:crtdll.obj
 0002:00004530       __pRawDllMain              10042530     MSVCRTD:crtdll.obj
 0002:00004534       ??_C@_0CL@CCAGLLEM@f?3?2dd?2vctools?2crt?2crtw32?2dllstuf@ 10042534     MSVCRTD:crtdll.obj
 0002:00004574       ??_C@_0BJ@HEGAHDFO@Stack?5pointer?5corruption?$AA@ 10042574     MSVCRTD:userapi.obj
 0002:00004590       ??_C@_0CK@FEGOIOPB@Cast?5to?5smaller?5type?5causing?5los@ 10042590     MSVCRTD:userapi.obj
 0002:000045bc       ??_C@_0BI@CIGMDCBH@Stack?5memory?5corruption?$AA@ 100425bc     MSVCRTD:userapi.obj
 0002:000045d4       ??_C@_0CK@CNLNOEPB@Local?5variable?5used?5before?5initi@ 100425d4     MSVCRTD:userapi.obj
 0002:00004600       ??_C@_0BP@OGBCLIBO@Stack?5around?5_alloca?5corrupted?$AA@ 10042600     MSVCRTD:userapi.obj
 0002:00004620       ??_C@_1MC@KPMPFEII@?$AA?$CI?$AA_?$AA_?$AAo?$AAn?$AAe?$AAx?$AAi?$AAt?$AAb?$AAe?$AAg?$AAi?$AAn?$AA?5?$AA?$CB?$AA?$DN?$AA?5?$AAN?$AAU?$AAL?$AAL?$AA?5?$AA?$CG?$AA?$CG?$AA?5?$AA_?$AA_?$AAo?$AAn?$AAe?$AAx@ 10042620     MSVCRTD:atonexit.obj
 0002:000046e4       ??_C@_15GANGMFKL@?$AA?$CF?$AAs?$AA?$AA@ 100426e4     MSVCRTD:atonexit.obj
 0002:000046f0       ??_C@_1FK@IGIDCAPD@?$AAf?$AA?3?$AA?2?$AAd?$AAd?$AA?2?$AAv?$AAc?$AAt?$AAo?$AAo?$AAl?$AAs?$AA?2?$AAc?$AAr?$AAt?$AA?2?$AAc?$AAr?$AAt?$AAw?$AA3?$AA2?$AA?2?$AAd?$AAl?$AAl?$AAs?$AAt?$AAu?$AAf@ 100426f0     MSVCRTD:atonexit.obj
 0002:0000474c       ??_C@_0CN@LMJJPMEG@f?3?2dd?2vctools?2crt?2crtw32?2dllstuf@ 1004274c     MSVCRTD:atonexit.obj
 0002:00004818       ??_C@_0NN@NGPKDKPD@The?5value?5of?5ESP?5was?5not?5properl@ 10042818     MSVCRTD:error.obj
 0002:000048f8       ??_C@_0BBN@GPMLNJCF@A?5cast?5to?5a?5smaller?5data?5type?5ha@ 100428f8     MSVCRTD:error.obj
 0002:00004a18       ??_C@_0BN@FFOINMNJ@Stack?5memory?5was?5corrupted?6?$AN?$AA@ 10042a18     MSVCRTD:error.obj
 0002:00004a38       ??_C@_0DG@HKJMLLLP@A?5local?5variable?5was?5used?5before@ 10042a38     MSVCRTD:error.obj
 0002:00004a70       ??_C@_0CM@NGINOKPC@Stack?5memory?5around?5_alloca?5was?5@ 10042a70     MSVCRTD:error.obj
 0002:00004a9c       ??_C@_0BO@GNIAFIKK@Unknown?5Runtime?5Check?5Error?6?$AN?$AA@ 10042a9c     MSVCRTD:error.obj
 0002:00004ac0       ??_C@_1GM@OLMCBDMB@?$AAR?$AAu?$AAn?$AAt?$AAi?$AAm?$AAe?$AA?5?$AAC?$AAh?$AAe?$AAc?$AAk?$AA?5?$AAE?$AAr?$AAr?$AAo?$AAr?$AA?4?$AA?6?$AA?$AN?$AA?5?$AAU?$AAn?$AAa?$AAb?$AAl?$AAe?$AA?5?$AAt?$AAo@ 10042ac0     MSVCRTD:error.obj
 0002:00004b30       ??_C@_1EA@NFKNIFJP@?$AAR?$AAu?$AAn?$AA?9?$AAT?$AAi?$AAm?$AAe?$AA?5?$AAC?$AAh?$AAe?$AAc?$AAk?$AA?5?$AAF?$AAa?$AAi?$AAl?$AAu?$AAr?$AAe?$AA?5?$AA?$CD?$AA?$CF?$AAd?$AA?5?$AA?9?$AA?5?$AA?$CF?$AAs?$AA?$AA@ 10042b30     MSVCRTD:error.obj
 0002:00004b70       ??_C@_0BB@PFFGGCJP@Unknown?5Filename?$AA@ 10042b70     MSVCRTD:error.obj
 0002:00004b84       ??_C@_0BE@GNBOBNCK@Unknown?5Module?5Name?$AA@ 10042b84     MSVCRTD:error.obj
 0002:00004b98       ??_C@_0CA@IODNCDPG@Run?9Time?5Check?5Failure?5?$CD?$CFd?5?9?5?$CFs?$AA@ 10042b98     MSVCRTD:error.obj
 0002:00004bb8       ??_C@_0CG@IAFNJNEE@Stack?5corrupted?5near?5unknown?5var@ 10042bb8     MSVCRTD:error.obj
 0002:00004be0       ??_C@_05MKKEDADM@?$CF?42X?5?$AA@ 10042be0     MSVCRTD:error.obj
 0002:00004be8       ??_C@_1BG@OILDLIOJ@?$AAu?$AAs?$AAe?$AAr?$AA3?$AA2?$AA?4?$AAd?$AAl?$AAl?$AA?$AA@ 10042be8     MSVCRTD:error.obj
 0002:00004c00       ??_C@_09FOPFMPEJ@wsprintfA?$AA@ 10042c00     MSVCRTD:error.obj
 0002:00004c10       ??_C@_0EJ@LJKNEOLN@Stack?5area?5around?5_alloca?5memory@ 10042c10     MSVCRTD:error.obj
 0002:00004c5c       ??_C@_08OMAHNMHJ@?6Data?3?5?$DM?$AA@ 10042c5c     MSVCRTD:error.obj
 0002:00004c68       ??_C@_0CK@DKGBICFE@?6Allocation?5number?5within?5this?5f@ 10042c68     MSVCRTD:error.obj
 0002:00004c94       ??_C@_07DFDJCKFN@?6Size?3?5?$AA@ 10042c94     MSVCRTD:error.obj
 0002:00004c9c       ??_C@_0N@MHFFIMFG@?6Address?3?50x?$AA@ 10042c9c     MSVCRTD:error.obj
 0002:00004cb0       ??_C@_0EI@CLEPFNGI@Stack?5area?5around?5_alloca?5memory@ 10042cb0     MSVCRTD:error.obj
 0002:00004cf8       ??_C@_0BC@KIBAILCI@?$CFs?$CFs?$CFp?$CFs?$CFld?$CFs?$CFd?$CFs?$AA@ 10042cf8     MSVCRTD:error.obj
 0002:00004d0c       ??_C@_01EEMJAFIK@?6?$AA@   10042d0c     MSVCRTD:error.obj
 0002:00004d10       ??_C@_02LLMPMKNF@?$DO?5?$AA@ 10042d10     MSVCRTD:error.obj
 0002:00004d14       ??_C@_08KJEDNCKC@?$CFs?$CFs?$CFs?$CFs?$AA@ 10042d14     MSVCRTD:error.obj
 0002:00004d20       ??_C@_0DE@OHJBPMBP@A?5variable?5is?5being?5used?5without@ 10042d20     MSVCRTD:error.obj
 0002:00004d94       ?LocalIdBitWidth@CrossScopeId@CodeViewInfo@@2IB 10042d94     MSVCRTD:pdblkup.obj
 0002:00004d98       ?IdScopeBitWidth@CrossScopeId@CodeViewInfo@@2IB 10042d98     MSVCRTD:pdblkup.obj
 0002:00004d9c       ?StartCrossScopeId@CrossScopeId@CodeViewInfo@@2IB 10042d9c     MSVCRTD:pdblkup.obj
 0002:00004da0       ?LocalIdMask@CrossScopeId@CodeViewInfo@@2IB 10042da0     MSVCRTD:pdblkup.obj
 0002:00004da4       ?ScopeIdMask@CrossScopeId@CodeViewInfo@@2IB 10042da4     MSVCRTD:pdblkup.obj
 0002:00004da8       ?MaxLocalId@CrossScopeId@CodeViewInfo@@2IB 10042da8     MSVCRTD:pdblkup.obj
 0002:00004dac       ?MaxScopeId@CrossScopeId@CodeViewInfo@@2IB 10042dac     MSVCRTD:pdblkup.obj
 0002:00004db0       ??_C@_1BK@GAEMIDIL@?$AAA?$AAD?$AAV?$AAA?$AAP?$AAI?$AA3?$AA2?$AA?4?$AAD?$AAL?$AAL?$AA?$AA@ 10042db0     MSVCRTD:pdblkup.obj
 0002:00004dcc       ??_C@_0O@COHOBMLB@RegOpenKeyExW?$AA@ 10042dcc     MSVCRTD:pdblkup.obj
 0002:00004ddc       ??_C@_0BB@GLNAEDBD@RegQueryValueExW?$AA@ 10042ddc     MSVCRTD:pdblkup.obj
 0002:00004df0       ??_C@_0M@HLOHPNFA@RegCloseKey?$AA@ 10042df0     MSVCRTD:pdblkup.obj
 0002:00004e00       ??_C@_1FM@EGIBBNPP@?$AAS?$AAO?$AAF?$AAT?$AAW?$AAA?$AAR?$AAE?$AA?2?$AAM?$AAi?$AAc?$AAr?$AAo?$AAs?$AAo?$AAf?$AAt?$AA?2?$AAV?$AAi?$AAs?$AAu?$AAa?$AAl?$AAS?$AAt?$AAu?$AAd?$AAi?$AAo?$AA?2@ 10042e00     MSVCRTD:pdblkup.obj
 0002:00004e5c       ??_C@_1BG@EABPBLLF@?$AAP?$AAr?$AAo?$AAd?$AAu?$AAc?$AAt?$AAD?$AAi?$AAr?$AA?$AA@ 10042e5c     MSVCRTD:pdblkup.obj
 0002:00004e90       ??_C@_1BC@EOIMGOME@?$AAM?$AAS?$AAP?$AAD?$AAB?$AA1?$AA2?$AA0?$AA?$AA@ 10042e90     MSVCRTD:pdblkup.obj
 0002:00004ea4       ??_C@_0BB@KCIACLNC@PDBOpenValidate5?$AA@ 10042ea4     MSVCRTD:pdblkup.obj
 0002:00004eb8       ??_C@_01KDCPPGHE@r?$AA@    10042eb8     MSVCRTD:pdblkup.obj
 0002:00004ec8       __load_config_used         10042ec8     MSVCRTD:loadcfg.obj
 0002:0000555c       ??_R4type_info@@6B@        1004355c     MSVCRTD:ti_inst.obj
 0002:00005570       ??_R3type_info@@8          10043570     MSVCRTD:ti_inst.obj
 0002:00005580       ??_R2type_info@@8          10043580     MSVCRTD:ti_inst.obj
 0002:00005588       ??_R1A@?0A@EA@type_info@@8 10043588     MSVCRTD:ti_inst.obj
 0002:000056c0       ___safe_se_handler_table   100436c0     <linker-defined>
 0002:000057c4       ___rtc_iaa                 100437c4     MSVCRTD:initsect.obj
 0002:00005a10       ___rtc_izz                 10043a10     MSVCRTD:initsect.obj
 0002:00005b14       ___rtc_taa                 10043b14     MSVCRTD:initsect.obj
 0002:00005d60       ___rtc_tzz                 10043d60     MSVCRTD:initsect.obj
 0003:00000030       ___pfnDliNotifyHook2       10045030     WindowsCookingDelayLoadHook.obj
 0003:00000040       ?g_PXTanEstCoefficients@aos@shdfnd@physx@@3UPX_VECTORF32@123@B 10045040     RTreeCooking.obj
 0003:00000060       ?g_PXATanEstCoefficients@aos@shdfnd@physx@@3UPX_VECTORF32@123@B 10045060     RTreeCooking.obj
 0003:00000080       ?g_PXASinEstConstants@aos@shdfnd@physx@@3UPX_VECTORF32@123@B 10045080     RTreeCooking.obj
 0003:000000a0       ?g_PXPiConstants0@aos@shdfnd@physx@@3UPX_VECTORF32@123@B 100450a0     RTreeCooking.obj
 0003:000000c0       ?g_PXReciprocalTwoPi@aos@shdfnd@physx@@3UPX_VECTORF32@123@B 100450c0     RTreeCooking.obj
 0003:000000e0       ?g_PXTwoPi@aos@shdfnd@physx@@3UPX_VECTORF32@123@B 100450e0     RTreeCooking.obj
 0003:000000f4       ?planetestepsilon@physx@@3MA 100450f4     hulllib.obj
 0003:00000100       ___native_dllmain_reason   10045100     MSVCRTD:natstart.obj
 0003:00000104       ___security_cookie         10045104     MSVCRTD:gs_cookie.obj
 0003:00000108       ___security_cookie_complement 10045108     MSVCRTD:gs_cookie.obj
 0003:0000010c       ?_RTC_ErrorLevels@@3PAHA   1004510c     MSVCRTD:error.obj
 0003:00000238       ??_R0I@8                   10045238     TriangleMeshBuilder.obj
 0003:00000248       ??_R0E@8                   10045248     BigConvexDataBuilder.obj
 0003:00000258       ??_R0?AUValency@Gu@physx@@@8 10045258     BigConvexDataBuilder.obj
 0003:00000280       ??_R0G@8                   10045280     BigConvexDataBuilder.obj
 0003:00000290       ??_R0?AUHullTriangleData@physx@@@8 10045290     ConvexHullBuilder.obj
 0003:000002bc       ??_R0?AUEdgeDescData@Gu@physx@@@8 100452bc     ConvexHullBuilder.obj
 0003:000002e8       ??_R0?AVBigConvexData@physx@@@8 100452e8     ConvexMeshBuilder.obj
 0003:00000310       ??_R0?AVConvexH@physx@@@8  10045310     hulllib.obj
 0003:00000334       ??_R0?AVTri@physx@@@8      10045334     hulllib.obj
 0003:00000350       ??_R0M@8                   10045350     hulllib.obj
 0003:00000360       ??_R0?AVAdjTriangle@physx@@@8 10045360     Adjacencies.obj
 0003:00000388       ??_R0?AVAdjEdge@@@8        10045388     Adjacencies.obj
 0003:000003a4       ??_R0?AVTriangleMeshBuilder@physx@@@8 100453a4     Cooking.obj
 0003:000003d4       ??_R0?AVHeightField@Gu@physx@@@8 100453d4     Cooking.obj
 0003:00000400       ??_R0?AVCooking@physx@@@8  10045400     Cooking.obj
 0003:00000424       ??_R0?AUEdgeTriangleData@Gu@physx@@@8 10045424     EdgeList.obj
 0003:00000454       ??_R0?AUEdgeData@Gu@physx@@@8 10045454     EdgeList.obj
 0003:0000047c       ??_R0?AVEdgeListBuilder@Gu@physx@@@8 1004547c     InternalTriangleMeshBuilder.obj
 0003:000004ac       ??_R0?AVtype_info@@@8      100454ac     MSVCRTD:ti_inst.obj
 0003:000005e4       ?_ignore@?2???APxVec3@physx@@QBEABMI@Z@4_NA 100455e4     RTreeCooking.obj
 0003:000005e5       ?_ignore@?2??isInside@PxBounds3@physx@@QBE_NABV23@@Z@4_NA 100455e5     RTreeCooking.obj
 0003:00000664       ?_ignore@?5??sort4@SubSortQuick@physx@@QAEXPIAIIAAV?$Array@URTreeNodeNQ@physx@@VNamedAllocator@shdfnd@2@@shdfnd@3@AAIAAUPxBounds3V@3@I@Z@4_NA 10045664     RTreeCooking.obj
 0003:00000665       ?_ignore@?6??sort4@SubSortQuick@physx@@QAEXPIAIIAAV?$Array@URTreeNodeNQ@physx@@VNamedAllocator@shdfnd@2@@shdfnd@3@AAIAAUPxBounds3V@3@I@Z@4_NA 10045665     RTreeCooking.obj
 0003:00000666       ?_ignore@?7??sort4@SubSortQuick@physx@@QAEXPIAIIAAV?$Array@URTreeNodeNQ@physx@@VNamedAllocator@shdfnd@2@@shdfnd@3@AAIAAUPxBounds3V@3@I@Z@4_NA 10045666     RTreeCooking.obj
 0003:00000667       ?_ignore@?8??sort4@SubSortQuick@physx@@QAEXPIAIIAAV?$Array@URTreeNodeNQ@physx@@VNamedAllocator@shdfnd@2@@shdfnd@3@AAIAAUPxBounds3V@3@I@Z@4_NA 10045667     RTreeCooking.obj
 0003:00000668       ?_ignore@?M@??sort4@SubSortQuick@physx@@QAEXPIAIIAAV?$Array@URTreeNodeNQ@physx@@VNamedAllocator@shdfnd@2@@shdfnd@3@AAIAAUPxBounds3V@3@I@Z@4_NA 10045668     RTreeCooking.obj
 0003:00000669       ?_ignore@?BH@??sort4@SubSortQuick@physx@@QAEXPIAIIAAV?$Array@URTreeNodeNQ@physx@@VNamedAllocator@shdfnd@2@@shdfnd@3@AAIAAUPxBounds3V@3@I@Z@4_NA 10045669     RTreeCooking.obj
 0003:0000066a       ?_ignore@?6??split@SubSortSAH@physx@@QAEIPAII@Z@4_NA 1004566a     RTreeCooking.obj
 0003:0000066b       ?_ignore@?7??split@SubSortSAH@physx@@QAEIPAII@Z@4_NA 1004566b     RTreeCooking.obj
 0003:0000066c       ?_ignore@?8??split@SubSortSAH@physx@@QAEIPAII@Z@4_NA 1004566c     RTreeCooking.obj
 0003:0000066d       ?_ignore@?9??split@SubSortSAH@physx@@QAEIPAII@Z@4_NA 1004566d     RTreeCooking.obj
 0003:0000066e       ?_ignore@?L@??split@SubSortSAH@physx@@QAEIPAII@Z@4_NA 1004566e     RTreeCooking.obj
 0003:0000066f       ?_ignore@?BO@??split@SubSortSAH@physx@@QAEIPAII@Z@4_NA 1004566f     RTreeCooking.obj
 0003:00000670       ?_ignore@?CB@??split@SubSortSAH@physx@@QAEIPAII@Z@4_NA 10045670     RTreeCooking.obj
 0003:00000671       ?_ignore@?2??computeSA@SubSortSAH@physx@@QAEMPBIABUInterval@3@@Z@4_NA 10045671     RTreeCooking.obj
 0003:00000672       ?_ignore@?BD@??sort4@SubSortSAH@physx@@QAEXPAIIAAV?$Array@URTreeNodeNQ@physx@@VNamedAllocator@shdfnd@2@@shdfnd@3@AAIIPAURTreeNodeNQ@3@@Z@4_NA 10045672     RTreeCooking.obj
 0003:00000673       ?_ignore@?BE@??sort4@SubSortSAH@physx@@QAEXPAIIAAV?$Array@URTreeNodeNQ@physx@@VNamedAllocator@shdfnd@2@@shdfnd@3@AAIIPAURTreeNodeNQ@3@@Z@4_NA 10045673     RTreeCooking.obj
 0003:00000674       ?_ignore@?BF@??sort4@SubSortSAH@physx@@QAEXPAIIAAV?$Array@URTreeNodeNQ@physx@@VNamedAllocator@shdfnd@2@@shdfnd@3@AAIIPAURTreeNodeNQ@3@@Z@4_NA 10045674     RTreeCooking.obj
 0003:00000675       ?_ignore@?BG@??sort4@SubSortSAH@physx@@QAEXPAIIAAV?$Array@URTreeNodeNQ@physx@@VNamedAllocator@shdfnd@2@@shdfnd@3@AAIIPAURTreeNodeNQ@3@@Z@4_NA 10045675     RTreeCooking.obj
 0003:00000676       ?_ignore@?BH@??sort4@SubSortSAH@physx@@QAEXPAIIAAV?$Array@URTreeNodeNQ@physx@@VNamedAllocator@shdfnd@2@@shdfnd@3@AAIIPAURTreeNodeNQ@3@@Z@4_NA 10045676     RTreeCooking.obj
 0003:00000677       ?_ignore@?BJ@??sort4@SubSortSAH@physx@@QAEXPAIIAAV?$Array@URTreeNodeNQ@physx@@VNamedAllocator@shdfnd@2@@shdfnd@3@AAIIPAURTreeNodeNQ@3@@Z@4_NA 10045677     RTreeCooking.obj
 0003:00000678       ?_ignore@?BP@??sort4@SubSortSAH@physx@@QAEXPAIIAAV?$Array@URTreeNodeNQ@physx@@VNamedAllocator@shdfnd@2@@shdfnd@3@AAIIPAURTreeNodeNQ@3@@Z@4_NA 10045678     RTreeCooking.obj
 0003:00000679       ?_ignore@?CA@??sort4@SubSortSAH@physx@@QAEXPAIIAAV?$Array@URTreeNodeNQ@physx@@VNamedAllocator@shdfnd@2@@shdfnd@3@AAIIPAURTreeNodeNQ@3@@Z@4_NA 10045679     RTreeCooking.obj
 0003:0000067a       ?_ignore@?CB@??sort4@SubSortSAH@physx@@QAEXPAIIAAV?$Array@URTreeNodeNQ@physx@@VNamedAllocator@shdfnd@2@@shdfnd@3@AAIIPAURTreeNodeNQ@3@@Z@4_NA 1004567a     RTreeCooking.obj
 0003:0000067b       ?_ignore@?CC@??sort4@SubSortSAH@physx@@QAEXPAIIAAV?$Array@URTreeNodeNQ@physx@@VNamedAllocator@shdfnd@2@@shdfnd@3@AAIIPAURTreeNodeNQ@3@@Z@4_NA 1004567b     RTreeCooking.obj
 0003:0000067c       ?_ignore@?CD@??sort4@SubSortSAH@physx@@QAEXPAIIAAV?$Array@URTreeNodeNQ@physx@@VNamedAllocator@shdfnd@2@@shdfnd@3@AAIIPAURTreeNodeNQ@3@@Z@4_NA 1004567c     RTreeCooking.obj
 0003:0000067d       ?_ignore@?DD@??sort4@SubSortSAH@physx@@QAEXPAIIAAV?$Array@URTreeNodeNQ@physx@@VNamedAllocator@shdfnd@2@@shdfnd@3@AAIIPAURTreeNodeNQ@3@@Z@4_NA 1004567d     RTreeCooking.obj
 0003:0000067e       ?_ignore@?DI@??sort4@SubSortSAH@physx@@QAEXPAIIAAV?$Array@URTreeNodeNQ@physx@@VNamedAllocator@shdfnd@2@@shdfnd@3@AAIIPAURTreeNodeNQ@3@@Z@4_NA 1004567e     RTreeCooking.obj
 0003:00000687       ?_ignore@?2???A?$Array@IVNamedAllocator@shdfnd@physx@@@shdfnd@physx@@QAEAAII@Z@4_NA 10045687     RTreeCooking.obj
 0003:00000688       ?_ignore@?2??popBack@?$Array@IVNamedAllocator@shdfnd@physx@@@shdfnd@physx@@QAEIXZ@4_NA 10045688     RTreeCooking.obj
 0003:00000689       ?_ignore@?2???A?$Array@URTreeNodeNQ@physx@@VNamedAllocator@shdfnd@2@@shdfnd@physx@@QAEAAURTreeNodeNQ@3@I@Z@4_NA 10045689     RTreeCooking.obj
 0003:0000068a       ?_ignore@?2???A?$Array@UInterval@physx@@V?$InlineAllocator@$0CA@VNamedAllocator@shdfnd@physx@@@shdfnd@2@@shdfnd@physx@@QAEAAUInterval@3@I@Z@4_NA 1004568a     RTreeCooking.obj
 0003:0000068b       ?_ignore@?2??replaceWithLast@?$Array@UInterval@physx@@V?$InlineAllocator@$0CA@VNamedAllocator@shdfnd@physx@@@shdfnd@2@@shdfnd@physx@@QAEXI@Z@4_NA 1004568b     RTreeCooking.obj
 0003:0000068c       ?_ignore@?2???A?$Array@URTreeNodeQ@Gu@physx@@VNamedAllocator@shdfnd@3@@shdfnd@physx@@QAEAAURTreeNodeQ@Gu@3@I@Z@4_NA 1004568c     RTreeCooking.obj
 0003:0000068d       ?_ignore@?2??grow@?$Array@UPxBounds3V@physx@@VNamedAllocator@shdfnd@2@@shdfnd@physx@@IAEXI@Z@4_NA 1004568d     RTreeCooking.obj
 0003:0000068e       ?_ignore@?2??grow@?$Array@IVNamedAllocator@shdfnd@physx@@@shdfnd@physx@@IAEXI@Z@4_NA 1004568e     RTreeCooking.obj
 0003:0000068f       ?_ignore@?2??grow@?$Array@VPxVec3@physx@@VNamedAllocator@shdfnd@2@@shdfnd@physx@@IAEXI@Z@4_NA 1004568f     RTreeCooking.obj
 0003:00000690       ?_ignore@?2??grow@?$Array@URTreeNodeNQ@physx@@VNamedAllocator@shdfnd@2@@shdfnd@physx@@IAEXI@Z@4_NA 10045690     RTreeCooking.obj
 0003:00000691       ?_ignore@?2??grow@?$Array@URTreeNodeQ@Gu@physx@@VNamedAllocator@shdfnd@3@@shdfnd@physx@@IAEXI@Z@4_NA 10045691     RTreeCooking.obj
 0003:00000692       ?_ignore@?2??growAndPushBack@?$Array@UPxBounds3V@physx@@VNamedAllocator@shdfnd@2@@shdfnd@physx@@IAEAAUPxBounds3V@4@ABU54@@Z@4_NA 10045692     RTreeCooking.obj
 0003:00000693       ?_ignore@?2??recreate@?$Array@UPxBounds3V@physx@@VNamedAllocator@shdfnd@2@@shdfnd@physx@@IAEXI@Z@4_NA 10045693     RTreeCooking.obj
 0003:00000694       ?_ignore@?2??growAndPushBack@?$Array@IVNamedAllocator@shdfnd@physx@@@shdfnd@physx@@IAEAAIABI@Z@4_NA 10045694     RTreeCooking.obj
 0003:00000695       ?_ignore@?2??recreate@?$Array@IVNamedAllocator@shdfnd@physx@@@shdfnd@physx@@IAEXI@Z@4_NA 10045695     RTreeCooking.obj
 0003:00000696       ?_ignore@?2??growAndPushBack@?$Array@VPxVec3@physx@@VNamedAllocator@shdfnd@2@@shdfnd@physx@@IAEAAVPxVec3@4@ABV54@@Z@4_NA 10045696     RTreeCooking.obj
 0003:00000697       ?_ignore@?2??recreate@?$Array@VPxVec3@physx@@VNamedAllocator@shdfnd@2@@shdfnd@physx@@IAEXI@Z@4_NA 10045697     RTreeCooking.obj
 0003:00000698       ?_ignore@?2??growAndPushBack@?$Array@URTreeNodeNQ@physx@@VNamedAllocator@shdfnd@2@@shdfnd@physx@@IAEAAURTreeNodeNQ@4@ABU54@@Z@4_NA 10045698     RTreeCooking.obj
 0003:00000699       ?_ignore@?2??recreate@?$Array@URTreeNodeNQ@physx@@VNamedAllocator@shdfnd@2@@shdfnd@physx@@IAEXI@Z@4_NA 10045699     RTreeCooking.obj
 0003:0000069a       ?_ignore@?2???$quickSelectFirstK@UBoundsLTE@physx@@@quickSelect@physx@@YAXPIAIIIIABUBoundsLTE@2@@Z@4_NA 1004569a     RTreeCooking.obj
 0003:0000069b       ?_ignore@?M@???$quickSelectFirstK@UBoundsLTE@physx@@@quickSelect@physx@@YAXPIAIIIIABUBoundsLTE@2@@Z@4_NA 1004569b     RTreeCooking.obj
 0003:0000069c       ?_ignore@?2??growAndPushBack@?$Array@UInterval@physx@@V?$InlineAllocator@$0CA@VNamedAllocator@shdfnd@physx@@@shdfnd@2@@shdfnd@physx@@IAEAAUInterval@4@ABU54@@Z@4_NA 1004569c     RTreeCooking.obj
 0003:0000069d       ?_ignore@?2??growAndPushBack@?$Array@URTreeNodeQ@Gu@physx@@VNamedAllocator@shdfnd@3@@shdfnd@physx@@IAEAAURTreeNodeQ@Gu@4@ABU564@@Z@4_NA 1004569d     RTreeCooking.obj
 0003:0000069e       ?_ignore@?2??recreate@?$Array@URTreeNodeQ@Gu@physx@@VNamedAllocator@shdfnd@3@@shdfnd@physx@@IAEXI@Z@4_NA 1004569e     RTreeCooking.obj
 0003:0000069f       ?_ignore@?2???$partition@UBoundsLTE@physx@@@quickSelect@physx@@YAIPIAIIIIABUBoundsLTE@2@@Z@4_NA 1004569f     RTreeCooking.obj
 0003:000006a0       ?_ignore@?M@???$partition@UBoundsLTE@physx@@@quickSelect@physx@@YAIPIAIIIIABUBoundsLTE@2@@Z@4_NA 100456a0     RTreeCooking.obj
 0003:000006a1       ?_ignore@?O@???$partition@UBoundsLTE@physx@@@quickSelect@physx@@YAIPIAIIIIABUBoundsLTE@2@@Z@4_NA 100456a1     RTreeCooking.obj
 0003:000006a2       ?_ignore@?O@???$sort@IU?$Less@I@shdfnd@physx@@VNamedAllocator@23@@shdfnd@physx@@YAXPAIIABU?$Less@I@12@ABVNamedAllocator@12@I@Z@4_NA 100456a2     RTreeCooking.obj
 0003:000006a3       ?_ignore@?BM@???$sort@IU?$Less@I@shdfnd@physx@@VNamedAllocator@23@@shdfnd@physx@@YAXPAIIABU?$Less@I@12@ABVNamedAllocator@12@I@Z@4_NA 100456a3     RTreeCooking.obj
 0003:000006a4       ?_ignore@?O@???$sort@IUSortBoundsPredicate@physx@@VNamedAllocator@shdfnd@2@@shdfnd@physx@@YAXPAIIABUSortBoundsPredicate@2@ABVNamedAllocator@12@I@Z@4_NA 100456a4     RTreeCooking.obj
 0003:000006a5       ?_ignore@?BM@???$sort@IUSortBoundsPredicate@physx@@VNamedAllocator@shdfnd@2@@shdfnd@physx@@YAXPAIIABUSortBoundsPredicate@2@ABVNamedAllocator@12@I@Z@4_NA 100456a5     RTreeCooking.obj
 0003:000006a6       ?_ignore@?2??pop@?$Stack@VNamedAllocator@shdfnd@physx@@@internal@shdfnd@physx@@QAEXAAH0@Z@4_NA 100456a6     RTreeCooking.obj
 0003:000006a7       ?_ignore@?8???$partition@I$$CBU?$Less@I@shdfnd@physx@@@internal@shdfnd@physx@@YAHPAIHHABU?$Less@I@23@@Z@4_NA 100456a7     RTreeCooking.obj
 0003:000006a8       ?_ignore@?9???$partition@I$$CBU?$Less@I@shdfnd@physx@@@internal@shdfnd@physx@@YAHPAIHHABU?$Less@I@23@@Z@4_NA 100456a8     RTreeCooking.obj
 0003:000006a9       ?_ignore@?8???$partition@I$$CBUSortBoundsPredicate@physx@@@internal@shdfnd@physx@@YAHPAIHHABUSortBoundsPredicate@3@@Z@4_NA 100456a9     RTreeCooking.obj
 0003:000006aa       ?_ignore@?9???$partition@I$$CBUSortBoundsPredicate@physx@@@internal@shdfnd@physx@@YAHPAIHHABUSortBoundsPredicate@3@@Z@4_NA 100456aa     RTreeCooking.obj
 0003:000006ab       ?_ignore@?2???APxVec3@physx@@QAEAAMI@Z@4_NA 100456ab     TriangleMeshBuilder.obj
 0003:00000723       ?_ignore@?2??to16@shdfnd@physx@@YAGI@Z@4_NA 10045723     TriangleMeshBuilder.obj
 0003:0000072b       ?_ignore@?2??to8@shdfnd@physx@@YAEI@Z@4_NA 1004572b     ConvexHullBuilder.obj
 0003:000007c3       ?_ignore@?4??PxGetGaussMapVertexLimitForPlatform@physx@@YAIW4Enum@PxPlatform@2@@Z@4_NA 100457c3     ConvexMeshBuilder.obj
 0003:000007c5       ?_ignore@?2??to8@shdfnd@physx@@YAEG@Z@4_NA 100457c5     hulllib.obj
 0003:000007c6       ?_ignore@?2???Afloat3@physx@@QAEAAMH@Z@4_NA 100457c6     hulllib.obj
 0003:000007c7       ?_ignore@?2???Afloat3@physx@@QBEABMH@Z@4_NA 100457c7     hulllib.obj
 0003:000007c8       ?_ignore@?2???Afloat3x3@physx@@QAEAAVfloat3@2@H@Z@4_NA 100457c8     hulllib.obj
 0003:000007c9       ?_ignore@?2???Afloat3x3@physx@@QBEABVfloat3@2@H@Z@4_NA 100457c9     hulllib.obj
 0003:000007fa       ?_ignore@?2???A?$Array@Vfloat3@physx@@@hullLibArray@physx@@QAEAAVfloat3@3@H@Z@4_NA 100457fa     hulllib.obj
 0003:000007fb       ?_ignore@?2???A?$Array@VHalfEdge@ConvexH@physx@@@hullLibArray@physx@@QAEAAVHalfEdge@ConvexH@3@H@Z@4_NA 100457fb     hulllib.obj
 0003:000007fc       ?_ignore@?2???A?$Array@VPlane@physx@@@hullLibArray@physx@@QAEAAVPlane@3@H@Z@4_NA 100457fc     hulllib.obj
 0003:000007fd       ?_ignore@?2???A?$Array@PAVTri@physx@@@hullLibArray@physx@@QAEAAPAVTri@3@H@Z@4_NA 100457fd     hulllib.obj
 0003:000007fe       ?_ignore@?2???A?$Array@H@hullLibArray@physx@@QAEAAHH@Z@4_NA 100457fe     hulllib.obj
 0003:000007ff       ?_ignore@?2???A?$Array@UExpandPlane@physx@@@hullLibArray@physx@@QAEAAUExpandPlane@3@H@Z@4_NA 100457ff     hulllib.obj
 0003:00000800       ?_ignore@?2??Add@?$Array@Vfloat3@physx@@@hullLibArray@physx@@QAEAAVfloat3@4@V54@@Z@4_NA 10045800     hulllib.obj
 0003:00000801       ?_ignore@?2??Add@?$Array@VPlane@physx@@@hullLibArray@physx@@QAEAAVPlane@4@V54@@Z@4_NA 10045801     hulllib.obj
 0003:00000802       ?_ignore@?2??Add@?$Array@PAVTri@physx@@@hullLibArray@physx@@QAEAAPAVTri@4@PAV54@@Z@4_NA 10045802     hulllib.obj
 0003:00000803       ?_ignore@?2??Add@?$Array@H@hullLibArray@physx@@QAEAAHH@Z@4_NA 10045803     hulllib.obj
 0003:00000804       ?_ignore@?BI@???$maxdirsterid@Vfloat3@physx@@@physx@@YAHPBVfloat3@1@HABV21@AAV?$Array@H@hullLibArray@1@@Z@4_NA 10045804     hulllib.obj
 0003:00000805       ?_ignore@?2??Add@?$Array@UExpandPlane@physx@@@hullLibArray@physx@@QAEAAUExpandPlane@4@U54@@Z@4_NA 10045805     hulllib.obj
 0003:00000806       ?_ignore@?2???$maxdir@Vfloat3@physx@@@physx@@YAHPBVfloat3@1@HABV21@@Z@4_NA 10045806     hulllib.obj
 0003:00000807       ?_ignore@?2??Add@?$Array@Vint3@physx@@@hullLibArray@physx@@QAEAAVint3@4@V54@@Z@4_NA 10045807     hulllib.obj
 0003:00000808       ?_ignore@?2??allocate@?$Array@Vfloat3@physx@@@hullLibArray@physx@@QAEXH@Z@4_NA 10045808     hulllib.obj
 0003:00000809       ?_ignore@?3??allocate@?$Array@Vfloat3@physx@@@hullLibArray@physx@@QAEXH@Z@4_NA 10045809     hulllib.obj
 0003:0000080a       ?_ignore@?4??allocate@?$Array@Vfloat3@physx@@@hullLibArray@physx@@QAEXH@Z@4_NA 1004580a     hulllib.obj
 0003:0000080b       ?_ignore@?2??allocate@?$Array@VHalfEdge@ConvexH@physx@@@hullLibArray@physx@@QAEXH@Z@4_NA 1004580b     hulllib.obj
 0003:0000080c       ?_ignore@?3??allocate@?$Array@VHalfEdge@ConvexH@physx@@@hullLibArray@physx@@QAEXH@Z@4_NA 1004580c     hulllib.obj
 0003:0000080d       ?_ignore@?4??allocate@?$Array@VHalfEdge@ConvexH@physx@@@hullLibArray@physx@@QAEXH@Z@4_NA 1004580d     hulllib.obj
 0003:0000080e       ?_ignore@?2??allocate@?$Array@VPlane@physx@@@hullLibArray@physx@@QAEXH@Z@4_NA 1004580e     hulllib.obj
 0003:0000080f       ?_ignore@?3??allocate@?$Array@VPlane@physx@@@hullLibArray@physx@@QAEXH@Z@4_NA 1004580f     hulllib.obj
 0003:00000810       ?_ignore@?4??allocate@?$Array@VPlane@physx@@@hullLibArray@physx@@QAEXH@Z@4_NA 10045810     hulllib.obj
 0003:00000811       ?_ignore@?2??allocate@?$Array@PAVTri@physx@@@hullLibArray@physx@@QAEXH@Z@4_NA 10045811     hulllib.obj
 0003:00000812       ?_ignore@?3??allocate@?$Array@PAVTri@physx@@@hullLibArray@physx@@QAEXH@Z@4_NA 10045812     hulllib.obj
 0003:00000813       ?_ignore@?4??allocate@?$Array@PAVTri@physx@@@hullLibArray@physx@@QAEXH@Z@4_NA 10045813     hulllib.obj
 0003:00000814       ?_ignore@?2??allocate@?$Array@H@hullLibArray@physx@@QAEXH@Z@4_NA 10045814     hulllib.obj
 0003:00000815       ?_ignore@?3??allocate@?$Array@H@hullLibArray@physx@@QAEXH@Z@4_NA 10045815     hulllib.obj
 0003:00000816       ?_ignore@?4??allocate@?$Array@H@hullLibArray@physx@@QAEXH@Z@4_NA 10045816     hulllib.obj
 0003:00000817       ?_ignore@?2???$maxdirfiltered@Vfloat3@physx@@@physx@@YAHPBVfloat3@1@HABV21@PA_N@Z@4_NA 10045817     hulllib.obj
 0003:00000818       ?_ignore@?9???$maxdirfiltered@Vfloat3@physx@@@physx@@YAHPBVfloat3@1@HABV21@PA_N@Z@4_NA 10045818     hulllib.obj
 0003:00000819       ?_ignore@?2??allocate@?$Array@UExpandPlane@physx@@@hullLibArray@physx@@QAEXH@Z@4_NA 10045819     hulllib.obj
 0003:0000081a       ?_ignore@?3??allocate@?$Array@UExpandPlane@physx@@@hullLibArray@physx@@QAEXH@Z@4_NA 1004581a     hulllib.obj
 0003:0000081b       ?_ignore@?4??allocate@?$Array@UExpandPlane@physx@@@hullLibArray@physx@@QAEXH@Z@4_NA 1004581b     hulllib.obj
 0003:0000081c       ?_ignore@?2??allocate@?$Array@Vint3@physx@@@hullLibArray@physx@@QAEXH@Z@4_NA 1004581c     hulllib.obj
 0003:0000081d       ?_ignore@?3??allocate@?$Array@Vint3@physx@@@hullLibArray@physx@@QAEXH@Z@4_NA 1004581d     hulllib.obj
 0003:0000081e       ?_ignore@?4??allocate@?$Array@Vint3@physx@@@hullLibArray@physx@@QAEXH@Z@4_NA 1004581e     hulllib.obj
 0003:0000082b       ?_ignore@?2??LeafSetData@Gu@physx@@YAIII@Z@4_NA 1004582b     InternalTriangleMeshBuilder.obj
 0003:0000082c       ?_ignore@?3??LeafSetData@Gu@physx@@YAIII@Z@4_NA 1004582c     InternalTriangleMeshBuilder.obj
 0003:0000082e       ?_ignore@?2??remap@RTreeCookerRemap@@UAEXPAIII@Z@4_NA 1004582e     InternalTriangleMeshBuilder.obj
 0003:0000082f       ?_ignore@?3??remap@RTreeCookerRemap@@UAEXPAIII@Z@4_NA 1004582f     InternalTriangleMeshBuilder.obj
 0003:00000830       ?_ignore@?4??remap@RTreeCookerRemap@@UAEXPAIII@Z@4_NA 10045830     InternalTriangleMeshBuilder.obj
 0003:00000831       ?_ignore@?5??remap@RTreeCookerRemap@@UAEXPAIII@Z@4_NA 10045831     InternalTriangleMeshBuilder.obj
 0003:00000832       ?_ignore@?6??remap@RTreeCookerRemap@@UAEXPAIII@Z@4_NA 10045832     InternalTriangleMeshBuilder.obj
 0003:00000840       __hmod__PhysX3CommonDEBUG_x86_dll 10045840     PhysX3CommonDEBUG_x86:PhysX3CommonDEBUG_x86.dll
 0003:00000844       ___pfnDliFailureHook2      10045844     delayimp:delayhk1.obj
 0003:0000084c       ?__type_info_root_node@@3U__type_info_node@@A 1004584c     MSVCRTD:tncleanup.obj
 0003:00000860       ?wsprintffp@@3P6AHPADPBDZZA 10045860     MSVCRTD:error.obj
 0003:00000b90       ___native_startup_lock     10045b90     <common>
 0003:00000ba0       ___native_startup_state    10045ba0     <common>
 0003:00000ba4       ___onexitend               10045ba4     <common>
 0003:00000bb4       ___onexitbegin             10045bb4     <common>
 0003:00000bb8       ___dyn_tls_init_callback   10045bb8     <common>
 0004:00000000       __imp__GetModuleFileNameA@12 10046000     kernel32:KERNEL32.dll
 0004:00000004       __imp__LoadLibraryA@4      10046004     kernel32:KERNEL32.dll
 0004:00000008       __imp__GetModuleHandleW@4  10046008     kernel32:KERNEL32.dll
 0004:0000000c       __imp__GetModuleFileNameW@12 1004600c     kernel32:KERNEL32.dll
 0004:00000010       __imp__VirtualQuery@12     10046010     kernel32:KERNEL32.dll
 0004:00000014       __imp__GetProcessHeap@0    10046014     kernel32:KERNEL32.dll
 0004:00000018       __imp__HeapFree@12         10046018     kernel32:KERNEL32.dll
 0004:0000001c       __imp__HeapAlloc@12        1004601c     kernel32:KERNEL32.dll
 0004:00000020       __imp__WideCharToMultiByte@32 10046020     kernel32:KERNEL32.dll
 0004:00000024       __imp__MultiByteToWideChar@24 10046024     kernel32:KERNEL32.dll
 0004:00000028       __imp__LoadLibraryExW@12   10046028     kernel32:KERNEL32.dll
 0004:0000002c       __imp__IsDebuggerPresent@0 1004602c     kernel32:KERNEL32.dll
 0004:00000030       __imp__DisableThreadLibraryCalls@4 10046030     kernel32:KERNEL32.dll
 0004:00000034       __imp__GetSystemTimeAsFileTime@4 10046034     kernel32:KERNEL32.dll
 0004:00000038       __imp__GetCurrentThreadId@0 10046038     kernel32:KERNEL32.dll
 0004:0000003c       __imp__GetCurrentProcessId@0 1004603c     kernel32:KERNEL32.dll
 0004:00000040       __imp__QueryPerformanceCounter@4 10046040     kernel32:KERNEL32.dll
 0004:00000044       __imp__DecodePointer@4     10046044     kernel32:KERNEL32.dll
 0004:00000048       __imp__EncodePointer@4     10046048     kernel32:KERNEL32.dll
 0004:0000004c       __imp__LoadLibraryExA@12   1004604c     kernel32:KERNEL32.dll
 0004:00000050       __imp__GetProcAddress@8    10046050     kernel32:KERNEL32.dll
 0004:00000054       __imp__FreeLibrary@4       10046054     kernel32:KERNEL32.dll
 0004:00000058       __imp__GetLastError@0      10046058     kernel32:KERNEL32.dll
 0004:0000005c       __imp__RaiseException@16   1004605c     kernel32:KERNEL32.dll
 0004:00000060       __imp__IsProcessorFeaturePresent@4 10046060     kernel32:KERNEL32.dll
 0004:00000064       \177KERNEL32_NULL_THUNK_DATA 10046064     kernel32:KERNEL32.dll
 0004:000000a4       __imp___amsg_exit          100460a4     MSVCRTD:MSVCR120D.dll
 0004:000000a8       __imp___malloc_dbg         100460a8     MSVCRTD:MSVCR120D.dll
 0004:000000ac       __imp___free_dbg           100460ac     MSVCRTD:MSVCR120D.dll
 0004:000000b0       __imp___CrtSetCheckCount   100460b0     MSVCRTD:MSVCR120D.dll
 0004:000000b4       __imp___initterm           100460b4     MSVCRTD:MSVCR120D.dll
 0004:000000b8       __imp___initterm_e         100460b8     MSVCRTD:MSVCR120D.dll
 0004:000000bc       __imp_?terminate@@YAXXZ    100460bc     MSVCRTD:MSVCR120D.dll
 0004:000000c0       __imp___lock               100460c0     MSVCRTD:MSVCR120D.dll
 0004:000000c4       __imp____CppXcptFilter     100460c4     MSVCRTD:MSVCR120D.dll
 0004:000000c8       __imp___CrtDbgReportW      100460c8     MSVCRTD:MSVCR120D.dll
 0004:000000cc       __imp___calloc_dbg         100460cc     MSVCRTD:MSVCR120D.dll
 0004:000000d0       __imp____dllonexit         100460d0     MSVCRTD:MSVCR120D.dll
 0004:000000d4       __imp___onexit             100460d4     MSVCRTD:MSVCR120D.dll
 0004:000000d8       __imp___except_handler4_common 100460d8     MSVCRTD:MSVCR120D.dll
 0004:000000dc       __imp__wcscpy_s            100460dc     MSVCRTD:MSVCR120D.dll
 0004:000000e0       __imp___wmakepath_s        100460e0     MSVCRTD:MSVCR120D.dll
 0004:000000e4       __imp___wsplitpath_s       100460e4     MSVCRTD:MSVCR120D.dll
 0004:000000e8       __imp___crt_debugger_hook  100460e8     MSVCRTD:MSVCR120D.dll
 0004:000000ec       __imp____crtUnhandledException 100460ec     MSVCRTD:MSVCR120D.dll
 0004:000000f0       __imp____crtTerminateProcess 100460f0     MSVCRTD:MSVCR120D.dll
 0004:000000f4       __imp_??1type_info@@UAE@XZ 100460f4     MSVCRTD:MSVCR120D.dll
 0004:000000f8       __imp____clean_type_info_names_internal 100460f8     MSVCRTD:MSVCR120D.dll
 0004:000000fc       __imp___except1            100460fc     MSVCRTD:MSVCR120D.dll
 0004:00000100       __imp___CRT_RTC_INITW      10046100     MSVCRTD:MSVCR120D.dll
 0004:00000104       __imp__floor               10046104     MSVCRTD:MSVCR120D.dll
 0004:00000108       __imp__atan2               10046108     MSVCRTD:MSVCR120D.dll
 0004:0000010c       __imp___purecall           1004610c     MSVCRTD:MSVCR120D.dll
 0004:00000110       __imp__sin                 10046110     MSVCRTD:MSVCR120D.dll
 0004:00000114       __imp__cos                 10046114     MSVCRTD:MSVCR120D.dll
 0004:00000118       __imp__printf              10046118     MSVCRTD:MSVCR120D.dll
 0004:0000011c       __imp_??3@YAXPAX@Z         1004611c     MSVCRTD:MSVCR120D.dll
 0004:00000120       __imp__sqrt                10046120     MSVCRTD:MSVCR120D.dll
 0004:00000124       __imp_?name@type_info@@QBEPBDPAU__type_info_node@@@Z 10046124     MSVCRTD:MSVCR120D.dll
 0004:00000128       __imp__pow                 10046128     MSVCRTD:MSVCR120D.dll
 0004:0000012c       __imp__fabs                1004612c     MSVCRTD:MSVCR120D.dll
 0004:00000130       __imp__memcpy              10046130     MSVCRTD:MSVCR120D.dll
 0004:00000134       __imp___fpclass            10046134     MSVCRTD:MSVCR120D.dll
 0004:00000138       __imp_??_U@YAPAXI@Z        10046138     MSVCRTD:MSVCR120D.dll
 0004:0000013c       __imp_??_V@YAXPAX@Z        1004613c     MSVCRTD:MSVCR120D.dll
 0004:00000140       __imp__memset              10046140     MSVCRTD:MSVCR120D.dll
 0004:00000144       __imp__strstr              10046144     MSVCRTD:MSVCR120D.dll
 0004:00000148       __imp__strcmp              10046148     MSVCRTD:MSVCR120D.dll
 0004:0000014c       __imp___unlock             1004614c     MSVCRTD:MSVCR120D.dll
 0004:00000150       \177MSVCR120D_NULL_THUNK_DATA 10046150     MSVCRTD:MSVCR120D.dll
 0004:0000019c       __IMPORT_DESCRIPTOR_KERNEL32 1004619c     kernel32:KERNEL32.dll
 0004:000001b0       __IMPORT_DESCRIPTOR_MSVCR120D 100461b0     MSVCRTD:MSVCR120D.dll
 0004:000001c4       __NULL_IMPORT_DESCRIPTOR   100461c4     kernel32:KERNEL32.dll
 0005:00000000       __DELAY_IMPORT_DESCRIPTOR_PhysX3CommonDEBUG_x86_dll 10047000     PhysX3CommonDEBUG_x86:PhysX3CommonDEBUG_x86.dll
 0005:00000020       __NULL_DELAY_IMPORT_DESCRIPTOR 10047020     PhysX3CommonDEBUG_x86:PhysX3CommonDEBUG_x86.dll
 0005:000001f4       \177PhysX3CommonDEBUG_x86_NULL_THUNK_DATA_DLN 100471f4     PhysX3CommonDEBUG_x86:PhysX3CommonDEBUG_x86.dll
 0005:00000274       __imp_?writeWord@physx@@YAXG_NAAVPxOutputStream@1@@Z 10047274     PhysX3CommonDEBUG_x86:PhysX3CommonDEBUG_x86.dll
 0005:00000278       __imp_?writeDword@physx@@YAXI_NAAVPxOutputStream@1@@Z 10047278     PhysX3CommonDEBUG_x86:PhysX3CommonDEBUG_x86.dll
 0005:0000027c       __imp_?writeFloat@physx@@YAXM_NAAVPxOutputStream@1@@Z 1004727c     PhysX3CommonDEBUG_x86:PhysX3CommonDEBUG_x86.dll
 0005:00000280       __imp_?writeHeader@physx@@YA_NCCCCI_NAAVPxOutputStream@1@@Z 10047280     PhysX3CommonDEBUG_x86:PhysX3CommonDEBUG_x86.dll
 0005:00000284       __imp_??0Allocator@shdfnd@physx@@QAE@PBD@Z 10047284     PhysX3CommonDEBUG_x86:PhysX3CommonDEBUG_x86.dll
 0005:00000288       __imp_?allocate@Allocator@shdfnd@physx@@QAEPAXIPBDH@Z 10047288     PhysX3CommonDEBUG_x86:PhysX3CommonDEBUG_x86.dll
 0005:0000028c       __imp_??0NamedAllocator@shdfnd@physx@@QAE@PBD@Z 1004728c     PhysX3CommonDEBUG_x86:PhysX3CommonDEBUG_x86.dll
 0005:00000290       __imp_??0NamedAllocator@shdfnd@physx@@QAE@ABV012@@Z 10047290     PhysX3CommonDEBUG_x86:PhysX3CommonDEBUG_x86.dll
 0005:00000294       __imp_??1NamedAllocator@shdfnd@physx@@QAE@XZ 10047294     PhysX3CommonDEBUG_x86:PhysX3CommonDEBUG_x86.dll
 0005:00000298       __imp_?allocate@NamedAllocator@shdfnd@physx@@QAEPAXIPBDH@Z 10047298     PhysX3CommonDEBUG_x86:PhysX3CommonDEBUG_x86.dll
 0005:0000029c       __imp_?deallocate@NamedAllocator@shdfnd@physx@@QAEXPAX@Z 1004729c     PhysX3CommonDEBUG_x86:PhysX3CommonDEBUG_x86.dll
 0005:000002a0       __imp_?PxGetAssertHandler@physx@@YAAAVPxAssertHandler@1@XZ 100472a0     PhysX3CommonDEBUG_x86:PhysX3CommonDEBUG_x86.dll
 0005:000002a4       __imp_?validate@RTree@Gu@physx@@QAEXXZ 100472a4     PhysX3CommonDEBUG_x86:PhysX3CommonDEBUG_x86.dll
 0005:000002a8       __imp_??0TempAllocator@shdfnd@physx@@QAE@PBD@Z 100472a8     PhysX3CommonDEBUG_x86:PhysX3CommonDEBUG_x86.dll
 0005:000002ac       __imp_?allocate@TempAllocator@shdfnd@physx@@QAEPAXIPBDH@Z 100472ac     PhysX3CommonDEBUG_x86:PhysX3CommonDEBUG_x86.dll
 0005:000002b0       __imp_?deallocate@TempAllocator@shdfnd@physx@@QAEXPAX@Z 100472b0     PhysX3CommonDEBUG_x86:PhysX3CommonDEBUG_x86.dll
 0005:000002b4       __imp_?computeBoundsAroundVertices@Gu@physx@@YAXAAVPxBounds3@2@IPIBVPxVec3@2@@Z 100472b4     PhysX3CommonDEBUG_x86:PhysX3CommonDEBUG_x86.dll
 0005:000002b8       __imp__PxGetFoundation     100472b8     PhysX3CommonDEBUG_x86:PhysX3CommonDEBUG_x86.dll
 0005:000002bc       __imp_?getAllocator@shdfnd@physx@@YAAAVPxAllocatorCallback@2@XZ 100472bc     PhysX3CommonDEBUG_x86:PhysX3CommonDEBUG_x86.dll
 0005:000002c0       __imp_?deallocate@Allocator@shdfnd@physx@@QAEXPAX@Z 100472c0     PhysX3CommonDEBUG_x86:PhysX3CommonDEBUG_x86.dll
 0005:000002c4       __imp_?getInstance@Foundation@shdfnd@physx@@SAAAV123@XZ 100472c4     PhysX3CommonDEBUG_x86:PhysX3CommonDEBUG_x86.dll
 0005:000002c8       __imp_?error@Foundation@shdfnd@physx@@QAAXW4Enum@PxErrorCode@3@PBDH1ZZ 100472c8     PhysX3CommonDEBUG_x86:PhysX3CommonDEBUG_x86.dll
 0005:000002cc       __imp_?save@RTree@Gu@physx@@QBE_NAAVPxOutputStream@3@@Z 100472cc     PhysX3CommonDEBUG_x86:PhysX3CommonDEBUG_x86.dll
 0005:000002d0       __imp_?release@InternalTriangleMesh@physx@@QAEXXZ 100472d0     PhysX3CommonDEBUG_x86:PhysX3CommonDEBUG_x86.dll
 0005:000002d4       __imp_?allocateVertices@InternalTriangleMesh@physx@@QAEPAVPxVec3@2@I@Z 100472d4     PhysX3CommonDEBUG_x86:PhysX3CommonDEBUG_x86.dll
 0005:000002d8       __imp_?allocateTriangles@InternalTriangleMesh@physx@@QAEPAXI_N@Z 100472d8     PhysX3CommonDEBUG_x86:PhysX3CommonDEBUG_x86.dll
 0005:000002dc       __imp_?allocateMaterials@InternalTriangleMesh@physx@@QAEPAGXZ 100472dc     PhysX3CommonDEBUG_x86:PhysX3CommonDEBUG_x86.dll
 0005:000002e0       __imp_?getNumVertices@InternalTriangleMesh@physx@@QBEIXZ 100472e0     PhysX3CommonDEBUG_x86:PhysX3CommonDEBUG_x86.dll
 0005:000002e4       __imp_?getNumTriangles@InternalTriangleMesh@physx@@QBEIXZ 100472e4     PhysX3CommonDEBUG_x86:PhysX3CommonDEBUG_x86.dll
 0005:000002e8       __imp_?getVertices@InternalTriangleMesh@physx@@QBEPBVPxVec3@2@XZ 100472e8     PhysX3CommonDEBUG_x86:PhysX3CommonDEBUG_x86.dll
 0005:000002ec       __imp_?getTriangles@InternalTriangleMesh@physx@@QBEPBXXZ 100472ec     PhysX3CommonDEBUG_x86:PhysX3CommonDEBUG_x86.dll
 0005:000002f0       __imp_?getMaterials@InternalTriangleMesh@physx@@QBEPBGXZ 100472f0     PhysX3CommonDEBUG_x86:PhysX3CommonDEBUG_x86.dll
 0005:000002f4       __imp_?getFaceRemap@InternalTriangleMesh@physx@@QBEPBIXZ 100472f4     PhysX3CommonDEBUG_x86:PhysX3CommonDEBUG_x86.dll
 0005:000002f8       __imp_?getAdjacencies@InternalTriangleMesh@physx@@QBEPBIXZ 100472f8     PhysX3CommonDEBUG_x86:PhysX3CommonDEBUG_x86.dll
 0005:000002fc       __imp_?getCollisionModel@InternalTriangleMesh@physx@@QBEABVRTreeMidphase@Gu@2@XZ 100472fc     PhysX3CommonDEBUG_x86:PhysX3CommonDEBUG_x86.dll
 0005:00000300       __imp_?writeWordBuffer@physx@@YAXPBGI_NAAVPxOutputStream@1@@Z 10047300     PhysX3CommonDEBUG_x86:PhysX3CommonDEBUG_x86.dll
 0005:00000304       __imp_?writeFloatBuffer@physx@@YAXPBMI_NAAVPxOutputStream@1@@Z 10047304     PhysX3CommonDEBUG_x86:PhysX3CommonDEBUG_x86.dll
 0005:00000308       __imp_?computeMaxIndex@physx@@YAIPBII@Z 10047308     PhysX3CommonDEBUG_x86:PhysX3CommonDEBUG_x86.dll
 0005:0000030c       __imp_?storeIndices@physx@@YAXIIPBIAAVPxOutputStream@1@_N@Z 1004730c     PhysX3CommonDEBUG_x86:PhysX3CommonDEBUG_x86.dll
 0005:00000310       __imp_?computeMaxIndex@physx@@YAGPBGI@Z 10047310     PhysX3CommonDEBUG_x86:PhysX3CommonDEBUG_x86.dll
 0005:00000314       __imp_?WriteHeader@Gu@physx@@YA_NEEEEI_NAAVPxOutputStream@2@@Z 10047314     PhysX3CommonDEBUG_x86:PhysX3CommonDEBUG_x86.dll
 0005:00000318       __imp_?StoreIndices@Gu@physx@@YAXGIPBGAAVPxOutputStream@2@_N@Z 10047318     PhysX3CommonDEBUG_x86:PhysX3CommonDEBUG_x86.dll
 0005:0000031c       __imp_?CreateOffsets@BigConvexData@physx@@IAEXXZ 1004731c     PhysX3CommonDEBUG_x86:PhysX3CommonDEBUG_x86.dll
 0005:00000320       __imp_?GetRanks@RadixSort@Gu@physx@@QBEPBIXZ 10047320     PhysX3CommonDEBUG_x86:PhysX3CommonDEBUG_x86.dll
 0005:00000324       __imp_??0RadixSortBuffered@Gu@physx@@QAE@XZ 10047324     PhysX3CommonDEBUG_x86:PhysX3CommonDEBUG_x86.dll
 0005:00000328       __imp_??1RadixSortBuffered@Gu@physx@@UAE@XZ 10047328     PhysX3CommonDEBUG_x86:PhysX3CommonDEBUG_x86.dll
 0005:0000032c       __imp_?Sort@RadixSortBuffered@Gu@physx@@QAEAAV123@PBIIW4RadixHint@23@@Z 1004732c     PhysX3CommonDEBUG_x86:PhysX3CommonDEBUG_x86.dll
 0005:00000330       __imp_??0Container@Gu@physx@@QAE@XZ 10047330     PhysX3CommonDEBUG_x86:PhysX3CommonDEBUG_x86.dll
 0005:00000334       __imp_??0Container@Gu@physx@@QAE@ABV012@@Z 10047334     PhysX3CommonDEBUG_x86:PhysX3CommonDEBUG_x86.dll
 0005:00000338       __imp_??1Container@Gu@physx@@QAE@XZ 10047338     PhysX3CommonDEBUG_x86:PhysX3CommonDEBUG_x86.dll
 0005:0000033c       __imp_?Add@Container@Gu@physx@@QAEAAV123@I@Z 1004733c     PhysX3CommonDEBUG_x86:PhysX3CommonDEBUG_x86.dll
 0005:00000340       __imp_?Add@Container@Gu@physx@@QAEAAV123@PBII@Z 10047340     PhysX3CommonDEBUG_x86:PhysX3CommonDEBUG_x86.dll
 0005:00000344       __imp_?Add@Container@Gu@physx@@QAEAAV123@ABV123@@Z 10047344     PhysX3CommonDEBUG_x86:PhysX3CommonDEBUG_x86.dll
 0005:00000348       __imp_?AddUnique@Container@Gu@physx@@QAEAAV123@I@Z 10047348     PhysX3CommonDEBUG_x86:PhysX3CommonDEBUG_x86.dll
 0005:0000034c       __imp_?Empty@Container@Gu@physx@@QAEAAV123@XZ 1004734c     PhysX3CommonDEBUG_x86:PhysX3CommonDEBUG_x86.dll
 0005:00000350       __imp_?Reset@Container@Gu@physx@@QAEXXZ 10047350     PhysX3CommonDEBUG_x86:PhysX3CommonDEBUG_x86.dll
 0005:00000354       __imp_?Contains@Container@Gu@physx@@QBE_NIPAI@Z 10047354     PhysX3CommonDEBUG_x86:PhysX3CommonDEBUG_x86.dll
 0005:00000358       __imp_?DeleteIndex@Container@Gu@physx@@QAEXI@Z 10047358     PhysX3CommonDEBUG_x86:PhysX3CommonDEBUG_x86.dll
 0005:0000035c       __imp_?GetNbEntries@Container@Gu@physx@@QBEIXZ 1004735c     PhysX3CommonDEBUG_x86:PhysX3CommonDEBUG_x86.dll
 0005:00000360       __imp_?GetEntry@Container@Gu@physx@@QBEII@Z 10047360     PhysX3CommonDEBUG_x86:PhysX3CommonDEBUG_x86.dll
 0005:00000364       __imp_?GetEntries@Container@Gu@physx@@QBEPAIXZ 10047364     PhysX3CommonDEBUG_x86:PhysX3CommonDEBUG_x86.dll
 0005:00000368       __imp_??AContainer@Gu@physx@@QAEAAII@Z 10047368     PhysX3CommonDEBUG_x86:PhysX3CommonDEBUG_x86.dll
 0005:0000036c       __imp_??4Container@Gu@physx@@QAEXABV012@@Z 1004736c     PhysX3CommonDEBUG_x86:PhysX3CommonDEBUG_x86.dll
 0005:00000370       __imp_??0ConvexMesh@Gu@physx@@QAE@XZ 10047370     PhysX3CommonDEBUG_x86:PhysX3CommonDEBUG_x86.dll
 0005:00000374       __imp_??1ConvexMesh@Gu@physx@@UAE@XZ 10047374     PhysX3CommonDEBUG_x86:PhysX3CommonDEBUG_x86.dll
 0005:00000378       __imp_??0BigConvexData@physx@@QAE@XZ 10047378     PhysX3CommonDEBUG_x86:PhysX3CommonDEBUG_x86.dll
 0005:0000037c       __imp_??1BigConvexData@physx@@QAE@XZ 1004737c     PhysX3CommonDEBUG_x86:PhysX3CommonDEBUG_x86.dll
 0005:00000380       __imp_?exportExtraData@ConvexMesh@Gu@physx@@UAEXAAVPxSerializationContext@3@@Z 10047380     PhysX3CommonDEBUG_x86:PhysX3CommonDEBUG_x86.dll
 0005:00000384       __imp_?getConcreteTypeName@PxConvexMesh@physx@@UBEPBDXZ 10047384     PhysX3CommonDEBUG_x86:PhysX3CommonDEBUG_x86.dll
 0005:00000388       __imp_?getIndexBuffer@ConvexMesh@Gu@physx@@UBEPBEXZ 10047388     PhysX3CommonDEBUG_x86:PhysX3CommonDEBUG_x86.dll
 0005:0000038c       __imp_?getLocalBounds@ConvexMesh@Gu@physx@@UBE?AVPxBounds3@3@XZ 1004738c     PhysX3CommonDEBUG_x86:PhysX3CommonDEBUG_x86.dll
 0005:00000390       __imp_?getMassInformation@ConvexMesh@Gu@physx@@UBEXAAMAAVPxMat33@3@AAVPxVec3@3@@Z 10047390     PhysX3CommonDEBUG_x86:PhysX3CommonDEBUG_x86.dll
 0005:00000394       __imp_?getNbPolygons@ConvexMesh@Gu@physx@@UBEIXZ 10047394     PhysX3CommonDEBUG_x86:PhysX3CommonDEBUG_x86.dll
 0005:00000398       __imp_?getNbVertices@ConvexMesh@Gu@physx@@UBEIXZ 10047398     PhysX3CommonDEBUG_x86:PhysX3CommonDEBUG_x86.dll
 0005:0000039c       __imp_?getPolygonData@ConvexMesh@Gu@physx@@UBE_NIAAUPxHullPolygon@3@@Z 1004739c     PhysX3CommonDEBUG_x86:PhysX3CommonDEBUG_x86.dll
 0005:000003a0       __imp_?getReferenceCount@ConvexMesh@Gu@physx@@UBEIXZ 100473a0     PhysX3CommonDEBUG_x86:PhysX3CommonDEBUG_x86.dll
 0005:000003a4       __imp_?getVertices@ConvexMesh@Gu@physx@@UBEPBVPxVec3@3@XZ 100473a4     PhysX3CommonDEBUG_x86:PhysX3CommonDEBUG_x86.dll
 0005:000003a8       __imp_?isKindOf@PxConvexMesh@physx@@MBE_NPBD@Z 100473a8     PhysX3CommonDEBUG_x86:PhysX3CommonDEBUG_x86.dll
 0005:000003ac       __imp_?onRefCountZero@ConvexMesh@Gu@physx@@UAEXXZ 100473ac     PhysX3CommonDEBUG_x86:PhysX3CommonDEBUG_x86.dll
 0005:000003b0       __imp_?release@ConvexMesh@Gu@physx@@UAEXXZ 100473b0     PhysX3CommonDEBUG_x86:PhysX3CommonDEBUG_x86.dll
 0005:000003b4       __imp_?readDword@physx@@YAI_NAAVPxInputStream@1@@Z 100473b4     PhysX3CommonDEBUG_x86:PhysX3CommonDEBUG_x86.dll
 0005:000003b8       __imp_?ReadHeader@Gu@physx@@YA_NEEEEAAIAA_NAAVPxInputStream@2@@Z 100473b8     PhysX3CommonDEBUG_x86:PhysX3CommonDEBUG_x86.dll
 0005:000003bc       __imp_??0FPUGuard@shdfnd@physx@@QAE@XZ 100473bc     PhysX3CommonDEBUG_x86:PhysX3CommonDEBUG_x86.dll
 0005:000003c0       __imp_??1FPUGuard@shdfnd@physx@@QAE@XZ 100473c0     PhysX3CommonDEBUG_x86:PhysX3CommonDEBUG_x86.dll
 0005:000003c4       __imp_?incRefCount@Foundation@shdfnd@physx@@SAXXZ 100473c4     PhysX3CommonDEBUG_x86:PhysX3CommonDEBUG_x86.dll
 0005:000003c8       __imp_?decRefCount@Foundation@shdfnd@physx@@SAXXZ 100473c8     PhysX3CommonDEBUG_x86:PhysX3CommonDEBUG_x86.dll
 0005:000003cc       __imp_??0TriangleMesh@Gu@physx@@QAE@XZ 100473cc     PhysX3CommonDEBUG_x86:PhysX3CommonDEBUG_x86.dll
 0005:000003d0       __imp_?checkMeshIndicesSize@TriangleMesh@Gu@physx@@QAEXXZ 100473d0     PhysX3CommonDEBUG_x86:PhysX3CommonDEBUG_x86.dll
 0005:000003d4       __imp_??1TriangleMesh@Gu@physx@@UAE@XZ 100473d4     PhysX3CommonDEBUG_x86:PhysX3CommonDEBUG_x86.dll
 0005:000003d8       __imp_??0HeightField@Gu@physx@@QAE@PAVGuMeshFactory@2@@Z 100473d8     PhysX3CommonDEBUG_x86:PhysX3CommonDEBUG_x86.dll
 0005:000003dc       __imp_?loadFromDesc@HeightField@Gu@physx@@QAE_NABVPxHeightFieldDesc@3@_N@Z 100473dc     PhysX3CommonDEBUG_x86:PhysX3CommonDEBUG_x86.dll
 0005:000003e0       __imp_?releaseMemory@HeightField@Gu@physx@@QAEX_N@Z 100473e0     PhysX3CommonDEBUG_x86:PhysX3CommonDEBUG_x86.dll
 0005:000003e4       __imp_?exportExtraData@TriangleMesh@Gu@physx@@UAEXAAVPxSerializationContext@3@@Z 100473e4     PhysX3CommonDEBUG_x86:PhysX3CommonDEBUG_x86.dll
 0005:000003e8       __imp_?getConcreteTypeName@PxTriangleMesh@physx@@UBEPBDXZ 100473e8     PhysX3CommonDEBUG_x86:PhysX3CommonDEBUG_x86.dll
 0005:000003ec       __imp_?getLocalBounds@TriangleMesh@Gu@physx@@UBE?AVPxBounds3@3@XZ 100473ec     PhysX3CommonDEBUG_x86:PhysX3CommonDEBUG_x86.dll
 0005:000003f0       __imp_?getNbTriangles@TriangleMesh@Gu@physx@@UBEIXZ 100473f0     PhysX3CommonDEBUG_x86:PhysX3CommonDEBUG_x86.dll
 0005:000003f4       __imp_?getNbVertices@TriangleMesh@Gu@physx@@UBEIXZ 100473f4     PhysX3CommonDEBUG_x86:PhysX3CommonDEBUG_x86.dll
 0005:000003f8       __imp_?getReferenceCount@TriangleMesh@Gu@physx@@UBEIXZ 100473f8     PhysX3CommonDEBUG_x86:PhysX3CommonDEBUG_x86.dll
 0005:000003fc       __imp_?getTriangleMaterialIndex@TriangleMesh@Gu@physx@@UBEGI@Z 100473fc     PhysX3CommonDEBUG_x86:PhysX3CommonDEBUG_x86.dll
 0005:00000400       __imp_?getTriangleMeshFlags@TriangleMesh@Gu@physx@@UBE?AV?$PxFlags@W4Enum@PxTriangleMeshFlag@physx@@E@3@XZ 10047400     PhysX3CommonDEBUG_x86:PhysX3CommonDEBUG_x86.dll
 0005:00000404       __imp_?getTriangles@TriangleMesh@Gu@physx@@UBEPBXXZ 10047404     PhysX3CommonDEBUG_x86:PhysX3CommonDEBUG_x86.dll
 0005:00000408       __imp_?getTrianglesRemap@TriangleMesh@Gu@physx@@UBEPBIXZ 10047408     PhysX3CommonDEBUG_x86:PhysX3CommonDEBUG_x86.dll
 0005:0000040c       __imp_?getVertices@TriangleMesh@Gu@physx@@UBEPBVPxVec3@3@XZ 1004740c     PhysX3CommonDEBUG_x86:PhysX3CommonDEBUG_x86.dll
 0005:00000410       __imp_?isKindOf@PxTriangleMesh@physx@@MBE_NPBD@Z 10047410     PhysX3CommonDEBUG_x86:PhysX3CommonDEBUG_x86.dll
 0005:00000414       __imp_?onRefCountZero@TriangleMesh@Gu@physx@@UAEXXZ 10047414     PhysX3CommonDEBUG_x86:PhysX3CommonDEBUG_x86.dll
 0005:00000418       __imp_?release@TriangleMesh@Gu@physx@@UAEXXZ 10047418     PhysX3CommonDEBUG_x86:PhysX3CommonDEBUG_x86.dll
 0005:0000041c       __imp_?has16BitIndices@InternalTriangleMesh@physx@@QBE_NXZ 1004741c     PhysX3CommonDEBUG_x86:PhysX3CommonDEBUG_x86.dll
 0005:00000420       __imp_?setTriangleAdjacency@InternalTriangleMesh@physx@@QAEXIII@Z 10047420     PhysX3CommonDEBUG_x86:PhysX3CommonDEBUG_x86.dll
 0005:00000424       __imp_?setupMeshInterface@InternalTriangleMesh@physx@@QAEXXZ 10047424     PhysX3CommonDEBUG_x86:PhysX3CommonDEBUG_x86.dll
 0005:00000428       \177PhysX3CommonDEBUG_x86_NULL_THUNK_DATA_DLA 10047428     PhysX3CommonDEBUG_x86:PhysX3CommonDEBUG_x86.dll
 0005:00001d58       \177PhysX3CommonDEBUG_x86_NULL_THUNK_DATA_DLB 10048d58     PhysX3CommonDEBUG_x86:PhysX3CommonDEBUG_x86.dll
